EXPORTS 
	??_R0?AVbad_alloc@std@@@8 	 DATA
	??_R0?AVbad_array_new_length@std@@@8 	 DATA
	??_R0?AVexception@std@@@8 	 DATA
	??_R0P6AXAEAV?$AnalysisManager@VModule@llvm@@$$V@llvm@@@Z@8 	 DATA
	??_R0P6A_NVStringRef@llvm@@AEAV?$PassManager@VModule@llvm@@V?$AnalysisManager@VModule@llvm@@$$V@2@$$V@1@V?$ArrayRef@UPipelineElement@PassBuilder@llvm@@@1@@Z@8 	 DATA
	?Key@StringAnalyzer@jvs@@0UAnalysisKey@llvm@@A 	 DATA
	??$?0$$QEAPEAVGlobalVariable@llvm@@$$Z$$QEAVStringRef@1@@?$pair@PEAVGlobalVariable@llvm@@VStringRef@2@@std@@QEAA@Upiecewise_construct_t@1@V?$tuple@$$QEAPEAVGlobalVariable@llvm@@@1@V?$tuple@$$QEAVStringRef@llvm@@@1@@Z
	??$?0$$V@?$_Compressed_pair@U?$default_delete@U?$AnalysisPassConcept@VModule@llvm@@VInvalidator@?$AnalysisManager@VModule@llvm@@$$V@2@$$V@detail@llvm@@@std@@PEAU?$AnalysisPassConcept@VModule@llvm@@VInvalidator@?$AnalysisManager@VModule@llvm@@$$V@2@$$V@detail@llvm@@$00@std@@QEAA@U_Zero_then_variadic_args_t@1@@Z
	??$?0$$V@?$_Compressed_pair@V?$allocator@D@std@@V?$_String_val@U?$_Simple_types@D@std@@@2@$00@std@@QEAA@U_Zero_then_variadic_args_t@1@@Z
	??$?0A6AXAEAV?$AnalysisManager@VModule@llvm@@$$V@llvm@@@Z$0A@@?$_Func_impl_no_alloc@P6AXAEAV?$AnalysisManager@VModule@llvm@@$$V@llvm@@@ZXAEAV12@@std@@QEAA@A6AXAEAV?$AnalysisManager@VModule@llvm@@$$V@llvm@@@Z@Z
	??$?0A6AXAEAV?$AnalysisManager@VModule@llvm@@$$V@llvm@@@Z$0A@@?$function@$$A6AXAEAV?$AnalysisManager@VModule@llvm@@$$V@llvm@@@Z@std@@QEAA@A6AXAEAV?$AnalysisManager@VModule@llvm@@$$V@llvm@@@Z@Z
	??$?0A6A_NVStringRef@llvm@@AEAV?$PassManager@VModule@llvm@@V?$AnalysisManager@VModule@llvm@@$$V@2@$$V@1@V?$ArrayRef@UPipelineElement@PassBuilder@llvm@@@1@@Z$0A@@?$_Func_impl_no_alloc@P6A_NVStringRef@llvm@@AEAV?$PassManager@VModule@llvm@@V?$AnalysisManager@VModule@llvm@@$$V@2@$$V@2@V?$ArrayRef@UPipelineElement@PassBuilder@llvm@@@2@@Z_NV12@AEAV32@V42@@std@@QEAA@A6A_NVStringRef@llvm@@AEAV?$PassManager@VModule@llvm@@V?$AnalysisManager@VModule@llvm@@$$V@2@$$V@3@V?$ArrayRef@UPipelineElement@PassBuilder@llvm@@@3@@Z@Z
	??$?0A6A_NVStringRef@llvm@@AEAV?$PassManager@VModule@llvm@@V?$AnalysisManager@VModule@llvm@@$$V@2@$$V@1@V?$ArrayRef@UPipelineElement@PassBuilder@llvm@@@1@@Z$0A@@?$function@$$A6A_NVStringRef@llvm@@AEAV?$PassManager@VModule@llvm@@V?$AnalysisManager@VModule@llvm@@$$V@2@$$V@2@V?$ArrayRef@UPipelineElement@PassBuilder@llvm@@@2@@Z@std@@QEAA@A6A_NVStringRef@llvm@@AEAV?$PassManager@VModule@llvm@@V?$AnalysisManager@VModule@llvm@@$$V@2@$$V@3@V?$ArrayRef@UPipelineElement@PassBuilder@llvm@@@3@@Z@Z
	??$?0AEAPEAPEBX_N$0A@@?$pair@PEAPEBX_N@std@@QEAA@AEAPEAPEBX$$QEA_N@Z
	??$?0AEAPEAU?$AnalysisResultModel@VModule@llvm@@VPassInstrumentationAnalysis@2@VPassInstrumentation@2@VInvalidator@?$AnalysisManager@VModule@llvm@@$$V@2@$00@detail@llvm@@@?$_Compressed_pair@U?$default_delete@U?$AnalysisResultModel@VModule@llvm@@VPassInstrumentationAnalysis@2@VPassInstrumentation@2@VInvalidator@?$AnalysisManager@VModule@llvm@@$$V@2@$00@detail@llvm@@@std@@PEAU?$AnalysisResultModel@VModule@llvm@@VPassInstrumentationAnalysis@2@VPassInstrumentation@2@VInvalidator@?$AnalysisManager@VModule@llvm@@$$V@2@$00@detail@llvm@@$00@std@@QEAA@U_Zero_then_variadic_args_t@1@AEAPEAU?$AnalysisResultModel@VModule@llvm@@VPassInstrumentationAnalysis@2@VPassInstrumentation@2@VInvalidator@?$AnalysisManager@VModule@llvm@@$$V@2@$00@detail@llvm@@@Z
	??$?0AEAPEAU?$AnalysisResultModel@VModule@llvm@@VStringAnalyzer@jvs@@V?$MapVector@PEAVGlobalVariable@llvm@@VStringRef@2@V?$DenseMap@PEAVGlobalVariable@llvm@@IU?$DenseMapInfo@PEAVGlobalVariable@llvm@@X@2@U?$DenseMapPair@PEAVGlobalVariable@llvm@@I@detail@2@@2@V?$SmallVector@U?$pair@PEAVGlobalVariable@llvm@@VStringRef@2@@std@@$0A@@2@@2@VInvalidator@?$AnalysisManager@VModule@llvm@@$$V@2@$0A@@detail@llvm@@@?$_Compressed_pair@U?$default_delete@U?$AnalysisResultModel@VModule@llvm@@VStringAnalyzer@jvs@@V?$MapVector@PEAVGlobalVariable@llvm@@VStringRef@2@V?$DenseMap@PEAVGlobalVariable@llvm@@IU?$DenseMapInfo@PEAVGlobalVariable@llvm@@X@2@U?$DenseMapPair@PEAVGlobalVariable@llvm@@I@detail@2@@2@V?$SmallVector@U?$pair@PEAVGlobalVariable@llvm@@VStringRef@2@@std@@$0A@@2@@2@VInvalidator@?$AnalysisManager@VModule@llvm@@$$V@2@$0A@@detail@llvm@@@std@@PEAU?$AnalysisResultModel@VModule@llvm@@VStringAnalyzer@jvs@@V?$MapVector@PEAVGlobalVariable@llvm@@VStringRef@2@V?$DenseMap@PEAVGlobalVariable@llvm@@IU?$DenseMapInfo@PEAVGlobalVariable@llvm@@X@2@U?$DenseMapPair@PEAVGlobalVariable@llvm@@I@detail@2@@2@V?$SmallVector@U?$pair@PEAVGlobalVariable@llvm@@VStringRef@2@@std@@$0A@@2@@2@VInvalidator@?$AnalysisManager@VModule@llvm@@$$V@2@$0A@@detail@llvm@@$00@std@@QEAA@U_Zero_then_variadic_args_t@1@AEAPEAU?$AnalysisResultModel@VModule@llvm@@VStringAnalyzer@jvs@@V?$MapVector@PEAVGlobalVariable@llvm@@VStringRef@2@V?$DenseMap@PEAVGlobalVariable@llvm@@IU?$DenseMapInfo@PEAVGlobalVariable@llvm@@X@2@U?$DenseMapPair@PEAVGlobalVariable@llvm@@I@detail@2@@2@V?$SmallVector@U?$pair@PEAVGlobalVariable@llvm@@VStringRef@2@@std@@$0A@@2@@2@VInvalidator@?$AnalysisManager@VModule@llvm@@$$V@2@$0A@@detail@llvm@@@Z
	??$?0AEAPEAU?$PassConcept@VModule@llvm@@V?$AnalysisManager@VModule@llvm@@$$V@2@$$V@detail@llvm@@@?$_Compressed_pair@U?$default_delete@U?$PassConcept@VModule@llvm@@V?$AnalysisManager@VModule@llvm@@$$V@2@$$V@detail@llvm@@@std@@PEAU?$PassConcept@VModule@llvm@@V?$AnalysisManager@VModule@llvm@@$$V@2@$$V@detail@llvm@@$00@std@@QEAA@U_Zero_then_variadic_args_t@1@AEAPEAU?$PassConcept@VModule@llvm@@V?$AnalysisManager@VModule@llvm@@$$V@2@$$V@detail@llvm@@@Z
	??$?0AEAPEAVGlobalVariable@llvm@@H$0A@@?$pair@PEAVGlobalVariable@llvm@@H@std@@QEAA@AEAPEAVGlobalVariable@llvm@@$$QEAH@Z
	??$?0AEAPEAVGlobalVariable@llvm@@V?$basic_string@DU?$char_traits@D@std@@V?$allocator@D@2@@std@@$0A@@?$pair@PEAVGlobalVariable@llvm@@V?$basic_string@DU?$char_traits@D@std@@V?$allocator@D@2@@std@@@std@@QEAA@AEAPEAVGlobalVariable@llvm@@$$QEAV?$basic_string@DU?$char_traits@D@std@@V?$allocator@D@2@@1@@Z
	??$?0AEBQ6AXAEAV?$AnalysisManager@VModule@llvm@@$$V@llvm@@@Z$0A@@?$_Func_impl_no_alloc@P6AXAEAV?$AnalysisManager@VModule@llvm@@$$V@llvm@@@ZXAEAV12@@std@@QEAA@AEBQ6AXAEAV?$AnalysisManager@VModule@llvm@@$$V@llvm@@@Z@Z
	??$?0AEBQ6A_NVStringRef@llvm@@AEAV?$PassManager@VModule@llvm@@V?$AnalysisManager@VModule@llvm@@$$V@2@$$V@1@V?$ArrayRef@UPipelineElement@PassBuilder@llvm@@@1@@Z$0A@@?$_Func_impl_no_alloc@P6A_NVStringRef@llvm@@AEAV?$PassManager@VModule@llvm@@V?$AnalysisManager@VModule@llvm@@$$V@2@$$V@2@V?$ArrayRef@UPipelineElement@PassBuilder@llvm@@@2@@Z_NV12@AEAV32@V42@@std@@QEAA@AEBQ6A_NVStringRef@llvm@@AEAV?$PassManager@VModule@llvm@@V?$AnalysisManager@VModule@llvm@@$$V@2@$$V@3@V?$ArrayRef@UPipelineElement@PassBuilder@llvm@@@3@@Z@Z
	??$?0P6A?AU?$pair@PEAVGlobalVariable@llvm@@V?$basic_string@DU?$char_traits@D@std@@V?$allocator@D@2@@std@@@std@@U?$pair@PEAVGlobalVariable@llvm@@VStringRef@2@@1@@Z$0A@@?$Callable@P6A?AU?$pair@PEAVGlobalVariable@llvm@@V?$basic_string@DU?$char_traits@D@std@@V?$allocator@D@2@@std@@@std@@U?$pair@PEAVGlobalVariable@llvm@@VStringRef@2@@2@@Z$00@callable_detail@llvm@@QEAA@$$QEAP6A?AU?$pair@PEAVGlobalVariable@llvm@@V?$basic_string@DU?$char_traits@D@std@@V?$allocator@D@2@@std@@@std@@U?$pair@PEAVGlobalVariable@llvm@@VStringRef@2@@4@@Z@Z
	??$?0P6AXAEAV?$AnalysisManager@VModule@llvm@@$$V@llvm@@@Z$0A@@?$_Func_impl_no_alloc@P6AXAEAV?$AnalysisManager@VModule@llvm@@$$V@llvm@@@ZXAEAV12@@std@@QEAA@$$QEAP6AXAEAV?$AnalysisManager@VModule@llvm@@$$V@llvm@@@Z@Z
	??$?0P6A_NVStringRef@llvm@@AEAV?$PassManager@VModule@llvm@@V?$AnalysisManager@VModule@llvm@@$$V@2@$$V@1@V?$ArrayRef@UPipelineElement@PassBuilder@llvm@@@1@@Z$0A@@?$_Func_impl_no_alloc@P6A_NVStringRef@llvm@@AEAV?$PassManager@VModule@llvm@@V?$AnalysisManager@VModule@llvm@@$$V@2@$$V@2@V?$ArrayRef@UPipelineElement@PassBuilder@llvm@@@2@@Z_NV12@AEAV32@V42@@std@@QEAA@$$QEAP6A_NVStringRef@llvm@@AEAV?$PassManager@VModule@llvm@@V?$AnalysisManager@VModule@llvm@@$$V@2@$$V@3@V?$ArrayRef@UPipelineElement@PassBuilder@llvm@@@3@@Z@Z
	??$?0PEAPEBX_N$0A@@?$pair@PEAPEBX_N@std@@QEAA@$$QEAPEAPEBX$$QEA_N@Z
	??$?0PEAPEBX_N$0A@@?$pair@PEBQEBX_N@std@@QEAA@$$QEAU?$pair@PEAPEBX_N@1@@Z
	??$?0PEAU?$pair@PEAVGlobalVariable@llvm@@VStringRef@2@@std@@_N$0A@@?$pair@PEAU?$pair@PEAVGlobalVariable@llvm@@VStringRef@2@@std@@_N@std@@QEAA@$$QEAPEAU?$pair@PEAVGlobalVariable@llvm@@VStringRef@2@@1@$$QEA_N@Z
	??$?0PEAVGlobalVariable@llvm@@$$V$0A@@?$tuple@$$QEAPEAVGlobalVariable@llvm@@@std@@QEAA@$$QEAPEAVGlobalVariable@llvm@@@Z
	??$?0PEAVGlobalVariable@llvm@@@?$_Tuple_val@$$QEAPEAVGlobalVariable@llvm@@@std@@QEAA@$$QEAPEAVGlobalVariable@llvm@@@Z
	??$?0PEAVGlobalVariable@llvm@@AEAVStringRef@1@$0A@@?$pair@PEAVGlobalVariable@llvm@@VStringRef@2@@std@@QEAA@$$QEAPEAVGlobalVariable@llvm@@AEAVStringRef@3@@Z
	??$?0PEAVGlobalVariable@llvm@@H$0A@@?$pair@PEAVGlobalVariable@llvm@@I@std@@QEAA@$$QEAU?$pair@PEAVGlobalVariable@llvm@@H@1@@Z
	??$?0U?$AnalysisResultModel@VModule@llvm@@VPassInstrumentationAnalysis@2@VPassInstrumentation@2@VInvalidator@?$AnalysisManager@VModule@llvm@@$$V@2@$00@detail@llvm@@$0A@@?$default_delete@U?$AnalysisResultConcept@VModule@llvm@@VInvalidator@?$AnalysisManager@VModule@llvm@@$$V@2@@detail@llvm@@@std@@QEAA@AEBU?$default_delete@U?$AnalysisResultModel@VModule@llvm@@VPassInstrumentationAnalysis@2@VPassInstrumentation@2@VInvalidator@?$AnalysisManager@VModule@llvm@@$$V@2@$00@detail@llvm@@@1@@Z
	??$?0U?$AnalysisResultModel@VModule@llvm@@VPassInstrumentationAnalysis@2@VPassInstrumentation@2@VInvalidator@?$AnalysisManager@VModule@llvm@@$$V@2@$00@detail@llvm@@U?$default_delete@U?$AnalysisResultModel@VModule@llvm@@VPassInstrumentationAnalysis@2@VPassInstrumentation@2@VInvalidator@?$AnalysisManager@VModule@llvm@@$$V@2@$00@detail@llvm@@@std@@$0A@@?$unique_ptr@U?$AnalysisResultConcept@VModule@llvm@@VInvalidator@?$AnalysisManager@VModule@llvm@@$$V@2@@detail@llvm@@U?$default_delete@U?$AnalysisResultConcept@VModule@llvm@@VInvalidator@?$AnalysisManager@VModule@llvm@@$$V@2@@detail@llvm@@@std@@@std@@QEAA@$$QEAV?$unique_ptr@U?$AnalysisResultModel@VModule@llvm@@VPassInstrumentationAnalysis@2@VPassInstrumentation@2@VInvalidator@?$AnalysisManager@VModule@llvm@@$$V@2@$00@detail@llvm@@U?$default_delete@U?$AnalysisResultModel@VModule@llvm@@VPassInstrumentationAnalysis@2@VPassInstrumentation@2@VInvalidator@?$AnalysisManager@VModule@llvm@@$$V@2@$00@detail@llvm@@@std@@@1@@Z
	??$?0U?$AnalysisResultModel@VModule@llvm@@VStringAnalyzer@jvs@@V?$MapVector@PEAVGlobalVariable@llvm@@VStringRef@2@V?$DenseMap@PEAVGlobalVariable@llvm@@IU?$DenseMapInfo@PEAVGlobalVariable@llvm@@X@2@U?$DenseMapPair@PEAVGlobalVariable@llvm@@I@detail@2@@2@V?$SmallVector@U?$pair@PEAVGlobalVariable@llvm@@VStringRef@2@@std@@$0A@@2@@2@VInvalidator@?$AnalysisManager@VModule@llvm@@$$V@2@$0A@@detail@llvm@@$0A@@?$default_delete@U?$AnalysisResultConcept@VModule@llvm@@VInvalidator@?$AnalysisManager@VModule@llvm@@$$V@2@@detail@llvm@@@std@@QEAA@AEBU?$default_delete@U?$AnalysisResultModel@VModule@llvm@@VStringAnalyzer@jvs@@V?$MapVector@PEAVGlobalVariable@llvm@@VStringRef@2@V?$DenseMap@PEAVGlobalVariable@llvm@@IU?$DenseMapInfo@PEAVGlobalVariable@llvm@@X@2@U?$DenseMapPair@PEAVGlobalVariable@llvm@@I@detail@2@@2@V?$SmallVector@U?$pair@PEAVGlobalVariable@llvm@@VStringRef@2@@std@@$0A@@2@@2@VInvalidator@?$AnalysisManager@VModule@llvm@@$$V@2@$0A@@detail@llvm@@@1@@Z
	??$?0U?$AnalysisResultModel@VModule@llvm@@VStringAnalyzer@jvs@@V?$MapVector@PEAVGlobalVariable@llvm@@VStringRef@2@V?$DenseMap@PEAVGlobalVariable@llvm@@IU?$DenseMapInfo@PEAVGlobalVariable@llvm@@X@2@U?$DenseMapPair@PEAVGlobalVariable@llvm@@I@detail@2@@2@V?$SmallVector@U?$pair@PEAVGlobalVariable@llvm@@VStringRef@2@@std@@$0A@@2@@2@VInvalidator@?$AnalysisManager@VModule@llvm@@$$V@2@$0A@@detail@llvm@@U?$default_delete@U?$AnalysisResultModel@VModule@llvm@@VStringAnalyzer@jvs@@V?$MapVector@PEAVGlobalVariable@llvm@@VStringRef@2@V?$DenseMap@PEAVGlobalVariable@llvm@@IU?$DenseMapInfo@PEAVGlobalVariable@llvm@@X@2@U?$DenseMapPair@PEAVGlobalVariable@llvm@@I@detail@2@@2@V?$SmallVector@U?$pair@PEAVGlobalVariable@llvm@@VStringRef@2@@std@@$0A@@2@@2@VInvalidator@?$AnalysisManager@VModule@llvm@@$$V@2@$0A@@detail@llvm@@@std@@$0A@@?$unique_ptr@U?$AnalysisResultConcept@VModule@llvm@@VInvalidator@?$AnalysisManager@VModule@llvm@@$$V@2@@detail@llvm@@U?$default_delete@U?$AnalysisResultConcept@VModule@llvm@@VInvalidator@?$AnalysisManager@VModule@llvm@@$$V@2@@detail@llvm@@@std@@@std@@QEAA@$$QEAV?$unique_ptr@U?$AnalysisResultModel@VModule@llvm@@VStringAnalyzer@jvs@@V?$MapVector@PEAVGlobalVariable@llvm@@VStringRef@2@V?$DenseMap@PEAVGlobalVariable@llvm@@IU?$DenseMapInfo@PEAVGlobalVariable@llvm@@X@2@U?$DenseMapPair@PEAVGlobalVariable@llvm@@I@detail@2@@2@V?$SmallVector@U?$pair@PEAVGlobalVariable@llvm@@VStringRef@2@@std@@$0A@@2@@2@VInvalidator@?$AnalysisManager@VModule@llvm@@$$V@2@$0A@@detail@llvm@@U?$default_delete@U?$AnalysisResultModel@VModule@llvm@@VStringAnalyzer@jvs@@V?$MapVector@PEAVGlobalVariable@llvm@@VStringRef@2@V?$DenseMap@PEAVGlobalVariable@llvm@@IU?$DenseMapInfo@PEAVGlobalVariable@llvm@@X@2@U?$DenseMapPair@PEAVGlobalVariable@llvm@@I@detail@2@@2@V?$SmallVector@U?$pair@PEAVGlobalVariable@llvm@@VStringRef@2@@std@@$0A@@2@@2@VInvalidator@?$AnalysisManager@VModule@llvm@@$$V@2@$0A@@detail@llvm@@@std@@@1@@Z
	??$?0U?$default_delete@U?$AnalysisPassConcept@VModule@llvm@@VInvalidator@?$AnalysisManager@VModule@llvm@@$$V@2@$$V@detail@llvm@@@std@@$0A@@?$unique_ptr@U?$AnalysisPassConcept@VModule@llvm@@VInvalidator@?$AnalysisManager@VModule@llvm@@$$V@2@$$V@detail@llvm@@U?$default_delete@U?$AnalysisPassConcept@VModule@llvm@@VInvalidator@?$AnalysisManager@VModule@llvm@@$$V@2@$$V@detail@llvm@@@std@@@std@@QEAA@$$QEAV01@@Z
	??$?0U?$default_delete@U?$AnalysisPassConcept@VModule@llvm@@VInvalidator@?$AnalysisManager@VModule@llvm@@$$V@2@$$V@detail@llvm@@@std@@$0A@@?$unique_ptr@U?$AnalysisPassConcept@VModule@llvm@@VInvalidator@?$AnalysisManager@VModule@llvm@@$$V@2@$$V@detail@llvm@@U?$default_delete@U?$AnalysisPassConcept@VModule@llvm@@VInvalidator@?$AnalysisManager@VModule@llvm@@$$V@2@$$V@detail@llvm@@@std@@@std@@QEAA@XZ
	??$?0U?$default_delete@U?$AnalysisPassConcept@VModule@llvm@@VInvalidator@?$AnalysisManager@VModule@llvm@@$$V@2@$$V@detail@llvm@@@std@@PEAU?$AnalysisPassConcept@VModule@llvm@@VInvalidator@?$AnalysisManager@VModule@llvm@@$$V@2@$$V@detail@llvm@@@?$_Compressed_pair@U?$default_delete@U?$AnalysisPassConcept@VModule@llvm@@VInvalidator@?$AnalysisManager@VModule@llvm@@$$V@2@$$V@detail@llvm@@@std@@PEAU?$AnalysisPassConcept@VModule@llvm@@VInvalidator@?$AnalysisManager@VModule@llvm@@$$V@2@$$V@detail@llvm@@$00@std@@QEAA@U_One_then_variadic_args_t@1@$$QEAU?$default_delete@U?$AnalysisPassConcept@VModule@llvm@@VInvalidator@?$AnalysisManager@VModule@llvm@@$$V@2@$$V@detail@llvm@@@1@$$QEAPEAU?$AnalysisPassConcept@VModule@llvm@@VInvalidator@?$AnalysisManager@VModule@llvm@@$$V@2@$$V@detail@llvm@@@Z
	??$?0U?$default_delete@U?$AnalysisResultModel@VModule@llvm@@VPassInstrumentationAnalysis@2@VPassInstrumentation@2@VInvalidator@?$AnalysisManager@VModule@llvm@@$$V@2@$00@detail@llvm@@@std@@$0A@@?$unique_ptr@U?$AnalysisResultModel@VModule@llvm@@VPassInstrumentationAnalysis@2@VPassInstrumentation@2@VInvalidator@?$AnalysisManager@VModule@llvm@@$$V@2@$00@detail@llvm@@U?$default_delete@U?$AnalysisResultModel@VModule@llvm@@VPassInstrumentationAnalysis@2@VPassInstrumentation@2@VInvalidator@?$AnalysisManager@VModule@llvm@@$$V@2@$00@detail@llvm@@@std@@@std@@QEAA@PEAU?$AnalysisResultModel@VModule@llvm@@VPassInstrumentationAnalysis@2@VPassInstrumentation@2@VInvalidator@?$AnalysisManager@VModule@llvm@@$$V@2@$00@detail@llvm@@@Z
	??$?0U?$default_delete@U?$AnalysisResultModel@VModule@llvm@@VPassInstrumentationAnalysis@2@VPassInstrumentation@2@VInvalidator@?$AnalysisManager@VModule@llvm@@$$V@2@$00@detail@llvm@@@std@@PEAU?$AnalysisResultModel@VModule@llvm@@VPassInstrumentationAnalysis@2@VPassInstrumentation@2@VInvalidator@?$AnalysisManager@VModule@llvm@@$$V@2@$00@detail@llvm@@@?$_Compressed_pair@U?$default_delete@U?$AnalysisResultConcept@VModule@llvm@@VInvalidator@?$AnalysisManager@VModule@llvm@@$$V@2@@detail@llvm@@@std@@PEAU?$AnalysisResultConcept@VModule@llvm@@VInvalidator@?$AnalysisManager@VModule@llvm@@$$V@2@@detail@llvm@@$00@std@@QEAA@U_One_then_variadic_args_t@1@$$QEAU?$default_delete@U?$AnalysisResultModel@VModule@llvm@@VPassInstrumentationAnalysis@2@VPassInstrumentation@2@VInvalidator@?$AnalysisManager@VModule@llvm@@$$V@2@$00@detail@llvm@@@1@$$QEAPEAU?$AnalysisResultModel@VModule@llvm@@VPassInstrumentationAnalysis@2@VPassInstrumentation@2@VInvalidator@?$AnalysisManager@VModule@llvm@@$$V@2@$00@detail@llvm@@@Z
	??$?0U?$default_delete@U?$AnalysisResultModel@VModule@llvm@@VStringAnalyzer@jvs@@V?$MapVector@PEAVGlobalVariable@llvm@@VStringRef@2@V?$DenseMap@PEAVGlobalVariable@llvm@@IU?$DenseMapInfo@PEAVGlobalVariable@llvm@@X@2@U?$DenseMapPair@PEAVGlobalVariable@llvm@@I@detail@2@@2@V?$SmallVector@U?$pair@PEAVGlobalVariable@llvm@@VStringRef@2@@std@@$0A@@2@@2@VInvalidator@?$AnalysisManager@VModule@llvm@@$$V@2@$0A@@detail@llvm@@@std@@$0A@@?$unique_ptr@U?$AnalysisResultModel@VModule@llvm@@VStringAnalyzer@jvs@@V?$MapVector@PEAVGlobalVariable@llvm@@VStringRef@2@V?$DenseMap@PEAVGlobalVariable@llvm@@IU?$DenseMapInfo@PEAVGlobalVariable@llvm@@X@2@U?$DenseMapPair@PEAVGlobalVariable@llvm@@I@detail@2@@2@V?$SmallVector@U?$pair@PEAVGlobalVariable@llvm@@VStringRef@2@@std@@$0A@@2@@2@VInvalidator@?$AnalysisManager@VModule@llvm@@$$V@2@$0A@@detail@llvm@@U?$default_delete@U?$AnalysisResultModel@VModule@llvm@@VStringAnalyzer@jvs@@V?$MapVector@PEAVGlobalVariable@llvm@@VStringRef@2@V?$DenseMap@PEAVGlobalVariable@llvm@@IU?$DenseMapInfo@PEAVGlobalVariable@llvm@@X@2@U?$DenseMapPair@PEAVGlobalVariable@llvm@@I@detail@2@@2@V?$SmallVector@U?$pair@PEAVGlobalVariable@llvm@@VStringRef@2@@std@@$0A@@2@@2@VInvalidator@?$AnalysisManager@VModule@llvm@@$$V@2@$0A@@detail@llvm@@@std@@@std@@QEAA@PEAU?$AnalysisResultModel@VModule@llvm@@VStringAnalyzer@jvs@@V?$MapVector@PEAVGlobalVariable@llvm@@VStringRef@2@V?$DenseMap@PEAVGlobalVariable@llvm@@IU?$DenseMapInfo@PEAVGlobalVariable@llvm@@X@2@U?$DenseMapPair@PEAVGlobalVariable@llvm@@I@detail@2@@2@V?$SmallVector@U?$pair@PEAVGlobalVariable@llvm@@VStringRef@2@@std@@$0A@@2@@2@VInvalidator@?$AnalysisManager@VModule@llvm@@$$V@2@$0A@@detail@llvm@@@Z
	??$?0U?$default_delete@U?$AnalysisResultModel@VModule@llvm@@VStringAnalyzer@jvs@@V?$MapVector@PEAVGlobalVariable@llvm@@VStringRef@2@V?$DenseMap@PEAVGlobalVariable@llvm@@IU?$DenseMapInfo@PEAVGlobalVariable@llvm@@X@2@U?$DenseMapPair@PEAVGlobalVariable@llvm@@I@detail@2@@2@V?$SmallVector@U?$pair@PEAVGlobalVariable@llvm@@VStringRef@2@@std@@$0A@@2@@2@VInvalidator@?$AnalysisManager@VModule@llvm@@$$V@2@$0A@@detail@llvm@@@std@@PEAU?$AnalysisResultModel@VModule@llvm@@VStringAnalyzer@jvs@@V?$MapVector@PEAVGlobalVariable@llvm@@VStringRef@2@V?$DenseMap@PEAVGlobalVariable@llvm@@IU?$DenseMapInfo@PEAVGlobalVariable@llvm@@X@2@U?$DenseMapPair@PEAVGlobalVariable@llvm@@I@detail@2@@2@V?$SmallVector@U?$pair@PEAVGlobalVariable@llvm@@VStringRef@2@@std@@$0A@@2@@2@VInvalidator@?$AnalysisManager@VModule@llvm@@$$V@2@$0A@@detail@llvm@@@?$_Compressed_pair@U?$default_delete@U?$AnalysisResultConcept@VModule@llvm@@VInvalidator@?$AnalysisManager@VModule@llvm@@$$V@2@@detail@llvm@@@std@@PEAU?$AnalysisResultConcept@VModule@llvm@@VInvalidator@?$AnalysisManager@VModule@llvm@@$$V@2@@detail@llvm@@$00@std@@QEAA@U_One_then_variadic_args_t@1@$$QEAU?$default_delete@U?$AnalysisResultModel@VModule@llvm@@VStringAnalyzer@jvs@@V?$MapVector@PEAVGlobalVariable@llvm@@VStringRef@2@V?$DenseMap@PEAVGlobalVariable@llvm@@IU?$DenseMapInfo@PEAVGlobalVariable@llvm@@X@2@U?$DenseMapPair@PEAVGlobalVariable@llvm@@I@detail@2@@2@V?$SmallVector@U?$pair@PEAVGlobalVariable@llvm@@VStringRef@2@@std@@$0A@@2@@2@VInvalidator@?$AnalysisManager@VModule@llvm@@$$V@2@$0A@@detail@llvm@@@1@$$QEAPEAU?$AnalysisResultModel@VModule@llvm@@VStringAnalyzer@jvs@@V?$MapVector@PEAVGlobalVariable@llvm@@VStringRef@2@V?$DenseMap@PEAVGlobalVariable@llvm@@IU?$DenseMapInfo@PEAVGlobalVariable@llvm@@X@2@U?$DenseMapPair@PEAVGlobalVariable@llvm@@I@detail@2@@2@V?$SmallVector@U?$pair@PEAVGlobalVariable@llvm@@VStringRef@2@@std@@$0A@@2@@2@VInvalidator@?$AnalysisManager@VModule@llvm@@$$V@2@$0A@@detail@llvm@@@Z
	??$?0U?$default_delete@U?$PassConcept@VModule@llvm@@V?$AnalysisManager@VModule@llvm@@$$V@2@$$V@detail@llvm@@@std@@$0A@@?$unique_ptr@U?$PassConcept@VModule@llvm@@V?$AnalysisManager@VModule@llvm@@$$V@2@$$V@detail@llvm@@U?$default_delete@U?$PassConcept@VModule@llvm@@V?$AnalysisManager@VModule@llvm@@$$V@2@$$V@detail@llvm@@@std@@@std@@QEAA@$$QEAV01@@Z
	??$?0U?$default_delete@U?$PassConcept@VModule@llvm@@V?$AnalysisManager@VModule@llvm@@$$V@2@$$V@detail@llvm@@@std@@$0A@@?$unique_ptr@U?$PassConcept@VModule@llvm@@V?$AnalysisManager@VModule@llvm@@$$V@2@$$V@detail@llvm@@U?$default_delete@U?$PassConcept@VModule@llvm@@V?$AnalysisManager@VModule@llvm@@$$V@2@$$V@detail@llvm@@@std@@@std@@QEAA@PEAU?$PassConcept@VModule@llvm@@V?$AnalysisManager@VModule@llvm@@$$V@2@$$V@detail@llvm@@@Z
	??$?0U?$default_delete@U?$PassConcept@VModule@llvm@@V?$AnalysisManager@VModule@llvm@@$$V@2@$$V@detail@llvm@@@std@@PEAU?$PassConcept@VModule@llvm@@V?$AnalysisManager@VModule@llvm@@$$V@2@$$V@detail@llvm@@@?$_Compressed_pair@U?$default_delete@U?$PassConcept@VModule@llvm@@V?$AnalysisManager@VModule@llvm@@$$V@2@$$V@detail@llvm@@@std@@PEAU?$PassConcept@VModule@llvm@@V?$AnalysisManager@VModule@llvm@@$$V@2@$$V@detail@llvm@@$00@std@@QEAA@U_One_then_variadic_args_t@1@$$QEAU?$default_delete@U?$PassConcept@VModule@llvm@@V?$AnalysisManager@VModule@llvm@@$$V@2@$$V@detail@llvm@@@1@$$QEAPEAU?$PassConcept@VModule@llvm@@V?$AnalysisManager@VModule@llvm@@$$V@2@$$V@detail@llvm@@@Z
	??$?0U_Exact_args_t@std@@$0A@@?$tuple@$$V@std@@QEAA@U_Exact_args_t@1@@Z
	??$?0U_Exact_args_t@std@@PEAVGlobalVariable@llvm@@$$V$0A@@?$tuple@$$QEAPEAVGlobalVariable@llvm@@@std@@QEAA@U_Exact_args_t@1@$$QEAPEAVGlobalVariable@llvm@@@Z
	??$?0U_Exact_args_t@std@@VStringRef@llvm@@$$V$0A@@?$tuple@$$QEAVStringRef@llvm@@@std@@QEAA@U_Exact_args_t@1@$$QEAVStringRef@llvm@@@Z
	??$?0V?$DenseMapIterator@PEAVGlobalVariable@llvm@@IU?$DenseMapInfo@PEAVGlobalVariable@llvm@@X@2@U?$DenseMapPair@PEAVGlobalVariable@llvm@@I@detail@2@$0A@@llvm@@_N$0A@@?$pair@V?$DenseMapIterator@PEAVGlobalVariable@llvm@@IU?$DenseMapInfo@PEAVGlobalVariable@llvm@@X@2@U?$DenseMapPair@PEAVGlobalVariable@llvm@@I@detail@2@$0A@@llvm@@_N@std@@QEAA@$$QEAV?$DenseMapIterator@PEAVGlobalVariable@llvm@@IU?$DenseMapInfo@PEAVGlobalVariable@llvm@@X@2@U?$DenseMapPair@PEAVGlobalVariable@llvm@@I@detail@2@$0A@@llvm@@$$QEA_N@Z
	??$?0V?$SmallPtrSetIterator@PEAUAnalysisKey@llvm@@@llvm@@AEA_N$0A@@?$pair@V?$SmallPtrSetIterator@PEAUAnalysisKey@llvm@@@llvm@@_N@std@@QEAA@$$QEAV?$SmallPtrSetIterator@PEAUAnalysisKey@llvm@@@llvm@@AEA_N@Z
	??$?0V?$SmallPtrSetIterator@PEAX@llvm@@AEA_N$0A@@?$pair@V?$SmallPtrSetIterator@PEAX@llvm@@_N@std@@QEAA@$$QEAV?$SmallPtrSetIterator@PEAX@llvm@@AEA_N@Z
	??$?0V?$allocator@D@std@@$$V@?$_Compressed_pair@V?$allocator@D@std@@V?$_String_val@U?$_Simple_types@D@std@@@2@$00@std@@QEAA@U_One_then_variadic_args_t@1@$$QEAV?$allocator@D@1@@Z
	??$?0V?$mapped_iterator@PEAU?$pair@PEAVGlobalVariable@llvm@@VStringRef@2@@std@@P6A?AU?$pair@PEAVGlobalVariable@llvm@@V?$basic_string@DU?$char_traits@D@std@@V?$allocator@D@2@@std@@@2@U12@@ZU32@@llvm@@X@?$SmallVector@U?$pair@PEAVGlobalVariable@llvm@@V?$basic_string@DU?$char_traits@D@std@@V?$allocator@D@2@@std@@@std@@$00@llvm@@QEAA@V?$mapped_iterator@PEAU?$pair@PEAVGlobalVariable@llvm@@VStringRef@2@@std@@P6A?AU?$pair@PEAVGlobalVariable@llvm@@V?$basic_string@DU?$char_traits@D@std@@V?$allocator@D@2@@std@@@2@U12@@ZU32@@1@0@Z
	??$?0V?$tuple@$$QEAPEAVGlobalVariable@llvm@@@std@@V?$tuple@$$QEAVStringRef@llvm@@@1@$0A@$$Z$0A@@?$pair@PEAVGlobalVariable@llvm@@VStringRef@2@@std@@AEAA@AEAV?$tuple@$$QEAPEAVGlobalVariable@llvm@@@1@AEAV?$tuple@$$QEAVStringRef@llvm@@@1@U?$integer_sequence@_K$0A@@1@2@Z
	??$?0VStringRef@llvm@@$$V$0A@@?$tuple@$$QEAVStringRef@llvm@@@std@@QEAA@$$QEAVStringRef@llvm@@@Z
	??$?0VStringRef@llvm@@@?$_Tuple_val@$$QEAVStringRef@llvm@@@std@@QEAA@$$QEAVStringRef@llvm@@@Z
	??$?4U?$pair@PEAVGlobalVariable@llvm@@VStringRef@2@@std@@$0A@@?$pair@PEAVGlobalVariable@llvm@@VStringRef@2@@std@@QEAAAEAU01@$$QEAU01@@Z
	??$?RAEAPEBXAEAPEBX@?$less@X@std@@QEBA_NAEAPEBX0@Z
	??$?RAEAU?$pair@PEAVGlobalVariable@llvm@@VStringRef@2@@std@@$0A@@?$Callable@P6A?AU?$pair@PEAVGlobalVariable@llvm@@V?$basic_string@DU?$char_traits@D@std@@V?$allocator@D@2@@std@@@std@@U?$pair@PEAVGlobalVariable@llvm@@VStringRef@2@@2@@Z$00@callable_detail@llvm@@QEBA?A_TAEAU?$pair@PEAVGlobalVariable@llvm@@VStringRef@2@@std@@@Z
	??$InsertIntoBucket@PEAUAnalysisKey@llvm@@$$V@?$DenseMapBase@V?$DenseMap@PEAUAnalysisKey@llvm@@V?$unique_ptr@U?$AnalysisPassConcept@VModule@llvm@@VInvalidator@?$AnalysisManager@VModule@llvm@@$$V@2@$$V@detail@llvm@@U?$default_delete@U?$AnalysisPassConcept@VModule@llvm@@VInvalidator@?$AnalysisManager@VModule@llvm@@$$V@2@$$V@detail@llvm@@@std@@@std@@U?$DenseMapInfo@PEAUAnalysisKey@llvm@@X@2@U?$DenseMapPair@PEAUAnalysisKey@llvm@@V?$unique_ptr@U?$AnalysisPassConcept@VModule@llvm@@VInvalidator@?$AnalysisManager@VModule@llvm@@$$V@2@$$V@detail@llvm@@U?$default_delete@U?$AnalysisPassConcept@VModule@llvm@@VInvalidator@?$AnalysisManager@VModule@llvm@@$$V@2@$$V@detail@llvm@@@std@@@std@@@detail@2@@llvm@@PEAUAnalysisKey@2@V?$unique_ptr@U?$AnalysisPassConcept@VModule@llvm@@VInvalidator@?$AnalysisManager@VModule@llvm@@$$V@2@$$V@detail@llvm@@U?$default_delete@U?$AnalysisPassConcept@VModule@llvm@@VInvalidator@?$AnalysisManager@VModule@llvm@@$$V@2@$$V@detail@llvm@@@std@@@std@@U?$DenseMapInfo@PEAUAnalysisKey@llvm@@X@2@U?$DenseMapPair@PEAUAnalysisKey@llvm@@V?$unique_ptr@U?$AnalysisPassConcept@VModule@llvm@@VInvalidator@?$AnalysisManager@VModule@llvm@@$$V@2@$$V@detail@llvm@@U?$default_delete@U?$AnalysisPassConcept@VModule@llvm@@VInvalidator@?$AnalysisManager@VModule@llvm@@$$V@2@$$V@detail@llvm@@@std@@@std@@@detail@2@@llvm@@AEAAPEAU?$DenseMapPair@PEAUAnalysisKey@llvm@@V?$unique_ptr@U?$AnalysisPassConcept@VModule@llvm@@VInvalidator@?$AnalysisManager@VModule@llvm@@$$V@2@$$V@detail@llvm@@U?$default_delete@U?$AnalysisPassConcept@VModule@llvm@@VInvalidator@?$AnalysisManager@VModule@llvm@@$$V@2@$$V@detail@llvm@@@std@@@std@@@detail@1@PEAU231@$$QEAPEAUAnalysisKey@1@@Z
	??$InsertIntoBucket@PEAVGlobalVariable@llvm@@I@?$DenseMapBase@V?$DenseMap@PEAVGlobalVariable@llvm@@IU?$DenseMapInfo@PEAVGlobalVariable@llvm@@X@2@U?$DenseMapPair@PEAVGlobalVariable@llvm@@I@detail@2@@llvm@@PEAVGlobalVariable@2@IU?$DenseMapInfo@PEAVGlobalVariable@llvm@@X@2@U?$DenseMapPair@PEAVGlobalVariable@llvm@@I@detail@2@@llvm@@AEAAPEAU?$DenseMapPair@PEAVGlobalVariable@llvm@@I@detail@1@PEAU231@$$QEAPEAVGlobalVariable@1@$$QEAI@Z
	??$InsertIntoBucketImpl@PEAUAnalysisKey@llvm@@@?$DenseMapBase@V?$DenseMap@PEAUAnalysisKey@llvm@@V?$unique_ptr@U?$AnalysisPassConcept@VModule@llvm@@VInvalidator@?$AnalysisManager@VModule@llvm@@$$V@2@$$V@detail@llvm@@U?$default_delete@U?$AnalysisPassConcept@VModule@llvm@@VInvalidator@?$AnalysisManager@VModule@llvm@@$$V@2@$$V@detail@llvm@@@std@@@std@@U?$DenseMapInfo@PEAUAnalysisKey@llvm@@X@2@U?$DenseMapPair@PEAUAnalysisKey@llvm@@V?$unique_ptr@U?$AnalysisPassConcept@VModule@llvm@@VInvalidator@?$AnalysisManager@VModule@llvm@@$$V@2@$$V@detail@llvm@@U?$default_delete@U?$AnalysisPassConcept@VModule@llvm@@VInvalidator@?$AnalysisManager@VModule@llvm@@$$V@2@$$V@detail@llvm@@@std@@@std@@@detail@2@@llvm@@PEAUAnalysisKey@2@V?$unique_ptr@U?$AnalysisPassConcept@VModule@llvm@@VInvalidator@?$AnalysisManager@VModule@llvm@@$$V@2@$$V@detail@llvm@@U?$default_delete@U?$AnalysisPassConcept@VModule@llvm@@VInvalidator@?$AnalysisManager@VModule@llvm@@$$V@2@$$V@detail@llvm@@@std@@@std@@U?$DenseMapInfo@PEAUAnalysisKey@llvm@@X@2@U?$DenseMapPair@PEAUAnalysisKey@llvm@@V?$unique_ptr@U?$AnalysisPassConcept@VModule@llvm@@VInvalidator@?$AnalysisManager@VModule@llvm@@$$V@2@$$V@detail@llvm@@U?$default_delete@U?$AnalysisPassConcept@VModule@llvm@@VInvalidator@?$AnalysisManager@VModule@llvm@@$$V@2@$$V@detail@llvm@@@std@@@std@@@detail@2@@llvm@@AEAAPEAU?$DenseMapPair@PEAUAnalysisKey@llvm@@V?$unique_ptr@U?$AnalysisPassConcept@VModule@llvm@@VInvalidator@?$AnalysisManager@VModule@llvm@@$$V@2@$$V@detail@llvm@@U?$default_delete@U?$AnalysisPassConcept@VModule@llvm@@VInvalidator@?$AnalysisManager@VModule@llvm@@$$V@2@$$V@detail@llvm@@@std@@@std@@@detail@1@AEBQEAUAnalysisKey@1@PEAU231@@Z
	??$InsertIntoBucketImpl@PEAVGlobalVariable@llvm@@@?$DenseMapBase@V?$DenseMap@PEAVGlobalVariable@llvm@@IU?$DenseMapInfo@PEAVGlobalVariable@llvm@@X@2@U?$DenseMapPair@PEAVGlobalVariable@llvm@@I@detail@2@@llvm@@PEAVGlobalVariable@2@IU?$DenseMapInfo@PEAVGlobalVariable@llvm@@X@2@U?$DenseMapPair@PEAVGlobalVariable@llvm@@I@detail@2@@llvm@@AEAAPEAU?$DenseMapPair@PEAVGlobalVariable@llvm@@I@detail@1@AEBQEAVGlobalVariable@1@PEAU231@@Z
	??$LookupBucketFor@PEAUAnalysisKey@llvm@@@?$DenseMapBase@V?$DenseMap@PEAUAnalysisKey@llvm@@V?$unique_ptr@U?$AnalysisPassConcept@VModule@llvm@@VInvalidator@?$AnalysisManager@VModule@llvm@@$$V@2@$$V@detail@llvm@@U?$default_delete@U?$AnalysisPassConcept@VModule@llvm@@VInvalidator@?$AnalysisManager@VModule@llvm@@$$V@2@$$V@detail@llvm@@@std@@@std@@U?$DenseMapInfo@PEAUAnalysisKey@llvm@@X@2@U?$DenseMapPair@PEAUAnalysisKey@llvm@@V?$unique_ptr@U?$AnalysisPassConcept@VModule@llvm@@VInvalidator@?$AnalysisManager@VModule@llvm@@$$V@2@$$V@detail@llvm@@U?$default_delete@U?$AnalysisPassConcept@VModule@llvm@@VInvalidator@?$AnalysisManager@VModule@llvm@@$$V@2@$$V@detail@llvm@@@std@@@std@@@detail@2@@llvm@@PEAUAnalysisKey@2@V?$unique_ptr@U?$AnalysisPassConcept@VModule@llvm@@VInvalidator@?$AnalysisManager@VModule@llvm@@$$V@2@$$V@detail@llvm@@U?$default_delete@U?$AnalysisPassConcept@VModule@llvm@@VInvalidator@?$AnalysisManager@VModule@llvm@@$$V@2@$$V@detail@llvm@@@std@@@std@@U?$DenseMapInfo@PEAUAnalysisKey@llvm@@X@2@U?$DenseMapPair@PEAUAnalysisKey@llvm@@V?$unique_ptr@U?$AnalysisPassConcept@VModule@llvm@@VInvalidator@?$AnalysisManager@VModule@llvm@@$$V@2@$$V@detail@llvm@@U?$default_delete@U?$AnalysisPassConcept@VModule@llvm@@VInvalidator@?$AnalysisManager@VModule@llvm@@$$V@2@$$V@detail@llvm@@@std@@@std@@@detail@2@@llvm@@AEAA_NAEBQEAUAnalysisKey@1@AEAPEAU?$DenseMapPair@PEAUAnalysisKey@llvm@@V?$unique_ptr@U?$AnalysisPassConcept@VModule@llvm@@VInvalidator@?$AnalysisManager@VModule@llvm@@$$V@2@$$V@detail@llvm@@U?$default_delete@U?$AnalysisPassConcept@VModule@llvm@@VInvalidator@?$AnalysisManager@VModule@llvm@@$$V@2@$$V@detail@llvm@@@std@@@std@@@detail@1@@Z
	??$LookupBucketFor@PEAVGlobalVariable@llvm@@@?$DenseMapBase@V?$DenseMap@PEAVGlobalVariable@llvm@@IU?$DenseMapInfo@PEAVGlobalVariable@llvm@@X@2@U?$DenseMapPair@PEAVGlobalVariable@llvm@@I@detail@2@@llvm@@PEAVGlobalVariable@2@IU?$DenseMapInfo@PEAVGlobalVariable@llvm@@X@2@U?$DenseMapPair@PEAVGlobalVariable@llvm@@I@detail@2@@llvm@@AEAA_NAEBQEAVGlobalVariable@1@AEAPEAU?$DenseMapPair@PEAVGlobalVariable@llvm@@I@detail@1@@Z
	??$Op@$0A@@GlobalVariable@llvm@@IEAAAEAVUse@1@XZ
	??$Op@$0A@@GlobalVariable@llvm@@IEBAAEBVUse@1@XZ
	??$OpFrom@$0A@VGlobalVariable@llvm@@@User@llvm@@KAAEAVUse@1@PEBVGlobalVariable@1@@Z
	??$_Adl_verify_range@PEAU?$pair@PEAVGlobalVariable@llvm@@V?$basic_string@DU?$char_traits@D@std@@V?$allocator@D@2@@std@@@std@@PEAU12@@std@@YAXAEBQEAU?$pair@PEAVGlobalVariable@llvm@@V?$basic_string@DU?$char_traits@D@std@@V?$allocator@D@2@@std@@@0@0@Z
	??$_Adl_verify_range@PEAU?$pair@PEAVGlobalVariable@llvm@@VStringRef@2@@std@@PEAU12@@std@@YAXAEBQEAU?$pair@PEAVGlobalVariable@llvm@@VStringRef@2@@0@0@Z
	??$_Adl_verify_range@PEAV?$function@$$A6AXAEAV?$AnalysisManager@VModule@llvm@@$$V@llvm@@@Z@std@@PEAV12@@std@@YAXAEBQEAV?$function@$$A6AXAEAV?$AnalysisManager@VModule@llvm@@$$V@llvm@@@Z@0@0@Z
	??$_Adl_verify_range@PEAV?$function@$$A6A_NVStringRef@llvm@@AEAV?$PassManager@VModule@llvm@@V?$AnalysisManager@VModule@llvm@@$$V@2@$$V@2@V?$ArrayRef@UPipelineElement@PassBuilder@llvm@@@2@@Z@std@@PEAV12@@std@@YAXAEBQEAV?$function@$$A6A_NVStringRef@llvm@@AEAV?$PassManager@VModule@llvm@@V?$AnalysisManager@VModule@llvm@@$$V@2@$$V@2@V?$ArrayRef@UPipelineElement@PassBuilder@llvm@@@2@@Z@0@0@Z
	??$_Adl_verify_range@V?$_String_iterator@V?$_String_val@U?$_Simple_types@D@std@@@std@@@std@@V12@@std@@YAXAEBV?$_String_iterator@V?$_String_val@U?$_Simple_types@D@std@@@std@@@0@0@Z
	??$_Adl_verify_range@V?$mapped_iterator@PEAU?$pair@PEAVGlobalVariable@llvm@@VStringRef@2@@std@@P6A?AU?$pair@PEAVGlobalVariable@llvm@@V?$basic_string@DU?$char_traits@D@std@@V?$allocator@D@2@@std@@@2@U12@@ZU32@@llvm@@V12@@std@@YAXAEBV?$mapped_iterator@PEAU?$pair@PEAVGlobalVariable@llvm@@VStringRef@2@@std@@P6A?AU?$pair@PEAVGlobalVariable@llvm@@V?$basic_string@DU?$char_traits@D@std@@V?$allocator@D@2@@std@@@2@U12@@ZU32@@llvm@@0@Z
	??$_Allocate@$0BA@U_Default_allocate_traits@std@@@std@@YAPEAX_K@Z
	??$_Allocate_at_least_helper@V?$allocator@D@std@@@std@@YAPEADAEAV?$allocator@D@0@AEA_K@Z
	??$_Allocate_at_least_helper@V?$allocator@V?$unique_ptr@U?$PassConcept@VModule@llvm@@V?$AnalysisManager@VModule@llvm@@$$V@2@$$V@detail@llvm@@U?$default_delete@U?$PassConcept@VModule@llvm@@V?$AnalysisManager@VModule@llvm@@$$V@2@$$V@detail@llvm@@@std@@@std@@@std@@@std@@YAPEAV?$unique_ptr@U?$PassConcept@VModule@llvm@@V?$AnalysisManager@VModule@llvm@@$$V@2@$$V@detail@llvm@@U?$default_delete@U?$PassConcept@VModule@llvm@@V?$AnalysisManager@VModule@llvm@@$$V@2@$$V@detail@llvm@@@std@@@0@AEAV?$allocator@V?$unique_ptr@U?$PassConcept@VModule@llvm@@V?$AnalysisManager@VModule@llvm@@$$V@2@$$V@detail@llvm@@U?$default_delete@U?$PassConcept@VModule@llvm@@V?$AnalysisManager@VModule@llvm@@$$V@2@$$V@detail@llvm@@@std@@@std@@@0@AEA_K@Z
	??$_Allocate_for_capacity@$0A@@?$basic_string@DU?$char_traits@D@std@@V?$allocator@D@2@@std@@CAPEADAEAV?$allocator@D@1@AEA_K@Z
	??$_Allocate_manually_vector_aligned@U_Default_allocate_traits@std@@@std@@YAPEAX_K@Z
	??$_Atomic_address_as@DU?$_Atomic_padded@_N@std@@@std@@YAPEDDAEBU?$_Atomic_padded@_N@0@@Z
	??$_Atomic_address_as@_JU?$_Atomic_padded@_K@std@@@std@@YAPEC_JAEAU?$_Atomic_padded@_K@0@@Z
	??$_Atomic_reinterpret_as@_J_K@std@@YA_JAEB_K@Z
	??$_Construct@$00PEBD@?$basic_string@DU?$char_traits@D@std@@V?$allocator@D@2@@std@@AEAAXQEBD_K@Z
	??$_Construct@$01PEBD@?$basic_string@DU?$char_traits@D@std@@V?$allocator@D@2@@std@@AEAAXQEBD_K@Z
	??$_Construct_in_place@PEADAEBQEAD@std@@YAXAEAPEADAEBQEAD@Z
	??$_Construct_in_place@U?$pair@PEAVGlobalVariable@llvm@@V?$basic_string@DU?$char_traits@D@std@@V?$allocator@D@2@@std@@@std@@U12@@std@@YAXAEAU?$pair@PEAVGlobalVariable@llvm@@V?$basic_string@DU?$char_traits@D@std@@V?$allocator@D@2@@std@@@0@$$QEAU10@@Z
	??$_Construct_in_place@V?$function@$$A6AXAEAV?$AnalysisManager@VModule@llvm@@$$V@llvm@@@Z@std@@V12@@std@@YAXAEAV?$function@$$A6AXAEAV?$AnalysisManager@VModule@llvm@@$$V@llvm@@@Z@0@$$QEAV10@@Z
	??$_Construct_in_place@V?$function@$$A6A_NVStringRef@llvm@@AEAV?$PassManager@VModule@llvm@@V?$AnalysisManager@VModule@llvm@@$$V@2@$$V@2@V?$ArrayRef@UPipelineElement@PassBuilder@llvm@@@2@@Z@std@@V12@@std@@YAXAEAV?$function@$$A6A_NVStringRef@llvm@@AEAV?$PassManager@VModule@llvm@@V?$AnalysisManager@VModule@llvm@@$$V@2@$$V@2@V?$ArrayRef@UPipelineElement@PassBuilder@llvm@@@2@@Z@0@$$QEAV10@@Z
	??$_Construct_in_place@V?$unique_ptr@U?$PassConcept@VModule@llvm@@V?$AnalysisManager@VModule@llvm@@$$V@2@$$V@detail@llvm@@U?$default_delete@U?$PassConcept@VModule@llvm@@V?$AnalysisManager@VModule@llvm@@$$V@2@$$V@detail@llvm@@@std@@@std@@V12@@std@@YAXAEAV?$unique_ptr@U?$PassConcept@VModule@llvm@@V?$AnalysisManager@VModule@llvm@@$$V@2@$$V@detail@llvm@@U?$default_delete@U?$PassConcept@VModule@llvm@@V?$AnalysisManager@VModule@llvm@@$$V@2@$$V@detail@llvm@@@std@@@0@$$QEAV10@@Z
	??$_Deallocate@$07@std@@YAXPEAX_K@Z
	??$_Deallocate@$0BA@@std@@YAXPEAX_K@Z
	??$_Destroy_in_place@PEAD@std@@YAXAEAPEAD@Z
	??$_Destroy_in_place@U?$pair@PEAVGlobalVariable@llvm@@V?$basic_string@DU?$char_traits@D@std@@V?$allocator@D@2@@std@@@std@@@std@@YAXAEAU?$pair@PEAVGlobalVariable@llvm@@V?$basic_string@DU?$char_traits@D@std@@V?$allocator@D@2@@std@@@0@@Z
	??$_Destroy_in_place@V?$function@$$A6AXAEAV?$AnalysisManager@VModule@llvm@@$$V@llvm@@@Z@std@@@std@@YAXAEAV?$function@$$A6AXAEAV?$AnalysisManager@VModule@llvm@@$$V@llvm@@@Z@0@@Z
	??$_Destroy_in_place@V?$function@$$A6A_NVStringRef@llvm@@AEAV?$PassManager@VModule@llvm@@V?$AnalysisManager@VModule@llvm@@$$V@2@$$V@2@V?$ArrayRef@UPipelineElement@PassBuilder@llvm@@@2@@Z@std@@@std@@YAXAEAV?$function@$$A6A_NVStringRef@llvm@@AEAV?$PassManager@VModule@llvm@@V?$AnalysisManager@VModule@llvm@@$$V@2@$$V@2@V?$ArrayRef@UPipelineElement@PassBuilder@llvm@@@2@@Z@0@@Z
	??$_Destroy_range@PEAU?$pair@PEAVGlobalVariable@llvm@@V?$basic_string@DU?$char_traits@D@std@@V?$allocator@D@2@@std@@@std@@PEAU12@@std@@YAXPEAU?$pair@PEAVGlobalVariable@llvm@@V?$basic_string@DU?$char_traits@D@std@@V?$allocator@D@2@@std@@@0@QEAU10@@Z
	??$_Destroy_range@PEAV?$function@$$A6AXAEAV?$AnalysisManager@VModule@llvm@@$$V@llvm@@@Z@std@@PEAV12@@std@@YAXPEAV?$function@$$A6AXAEAV?$AnalysisManager@VModule@llvm@@$$V@llvm@@@Z@0@QEAV10@@Z
	??$_Destroy_range@PEAV?$function@$$A6A_NVStringRef@llvm@@AEAV?$PassManager@VModule@llvm@@V?$AnalysisManager@VModule@llvm@@$$V@2@$$V@2@V?$ArrayRef@UPipelineElement@PassBuilder@llvm@@@2@@Z@std@@PEAV12@@std@@YAXPEAV?$function@$$A6A_NVStringRef@llvm@@AEAV?$PassManager@VModule@llvm@@V?$AnalysisManager@VModule@llvm@@$$V@2@$$V@2@V?$ArrayRef@UPipelineElement@PassBuilder@llvm@@@2@@Z@0@QEAV10@@Z
	??$_Destroy_range@V?$allocator@V?$unique_ptr@U?$PassConcept@VModule@llvm@@V?$AnalysisManager@VModule@llvm@@$$V@2@$$V@detail@llvm@@U?$default_delete@U?$PassConcept@VModule@llvm@@V?$AnalysisManager@VModule@llvm@@$$V@2@$$V@detail@llvm@@@std@@@std@@@std@@@std@@YAXPEAV?$unique_ptr@U?$PassConcept@VModule@llvm@@V?$AnalysisManager@VModule@llvm@@$$V@2@$$V@detail@llvm@@U?$default_delete@U?$PassConcept@VModule@llvm@@V?$AnalysisManager@VModule@llvm@@$$V@2@$$V@detail@llvm@@@std@@@0@QEAV10@AEAV?$allocator@V?$unique_ptr@U?$PassConcept@VModule@llvm@@V?$AnalysisManager@VModule@llvm@@$$V@2@$$V@detail@llvm@@U?$default_delete@U?$PassConcept@VModule@llvm@@V?$AnalysisManager@VModule@llvm@@$$V@2@$$V@detail@llvm@@@std@@@std@@@0@@Z
	??$_Emplace_back@U?$pair@PEAVGlobalVariable@llvm@@V?$basic_string@DU?$char_traits@D@std@@V?$allocator@D@2@@std@@@std@@@?$_Uninitialized_backout@PEAU?$pair@PEAVGlobalVariable@llvm@@V?$basic_string@DU?$char_traits@D@std@@V?$allocator@D@2@@std@@@std@@@std@@QEAAX$$QEAU?$pair@PEAVGlobalVariable@llvm@@V?$basic_string@DU?$char_traits@D@std@@V?$allocator@D@2@@std@@@1@@Z
	??$_Emplace_back@V?$function@$$A6AXAEAV?$AnalysisManager@VModule@llvm@@$$V@llvm@@@Z@std@@@?$_Uninitialized_backout@PEAV?$function@$$A6AXAEAV?$AnalysisManager@VModule@llvm@@$$V@llvm@@@Z@std@@@std@@QEAAX$$QEAV?$function@$$A6AXAEAV?$AnalysisManager@VModule@llvm@@$$V@llvm@@@Z@1@@Z
	??$_Emplace_back@V?$function@$$A6A_NVStringRef@llvm@@AEAV?$PassManager@VModule@llvm@@V?$AnalysisManager@VModule@llvm@@$$V@2@$$V@2@V?$ArrayRef@UPipelineElement@PassBuilder@llvm@@@2@@Z@std@@@?$_Uninitialized_backout@PEAV?$function@$$A6A_NVStringRef@llvm@@AEAV?$PassManager@VModule@llvm@@V?$AnalysisManager@VModule@llvm@@$$V@2@$$V@2@V?$ArrayRef@UPipelineElement@PassBuilder@llvm@@@2@@Z@std@@@std@@QEAAX$$QEAV?$function@$$A6A_NVStringRef@llvm@@AEAV?$PassManager@VModule@llvm@@V?$AnalysisManager@VModule@llvm@@$$V@2@$$V@2@V?$ArrayRef@UPipelineElement@PassBuilder@llvm@@@2@@Z@1@@Z
	??$_Emplace_back@V?$unique_ptr@U?$PassConcept@VModule@llvm@@V?$AnalysisManager@VModule@llvm@@$$V@2@$$V@detail@llvm@@U?$default_delete@U?$PassConcept@VModule@llvm@@V?$AnalysisManager@VModule@llvm@@$$V@2@$$V@detail@llvm@@@std@@@std@@@?$_Uninitialized_backout_al@V?$allocator@V?$unique_ptr@U?$PassConcept@VModule@llvm@@V?$AnalysisManager@VModule@llvm@@$$V@2@$$V@detail@llvm@@U?$default_delete@U?$PassConcept@VModule@llvm@@V?$AnalysisManager@VModule@llvm@@$$V@2@$$V@detail@llvm@@@std@@@std@@@std@@@std@@QEAAX$$QEAV?$unique_ptr@U?$PassConcept@VModule@llvm@@V?$AnalysisManager@VModule@llvm@@$$V@2@$$V@detail@llvm@@U?$default_delete@U?$PassConcept@VModule@llvm@@V?$AnalysisManager@VModule@llvm@@$$V@2@$$V@detail@llvm@@@std@@@1@@Z
	??$_Emplace_back_with_unused_capacity@V?$unique_ptr@U?$PassConcept@VModule@llvm@@V?$AnalysisManager@VModule@llvm@@$$V@2@$$V@detail@llvm@@U?$default_delete@U?$PassConcept@VModule@llvm@@V?$AnalysisManager@VModule@llvm@@$$V@2@$$V@detail@llvm@@@std@@@std@@@?$vector@V?$unique_ptr@U?$PassConcept@VModule@llvm@@V?$AnalysisManager@VModule@llvm@@$$V@2@$$V@detail@llvm@@U?$default_delete@U?$PassConcept@VModule@llvm@@V?$AnalysisManager@VModule@llvm@@$$V@2@$$V@detail@llvm@@@std@@@std@@V?$allocator@V?$unique_ptr@U?$PassConcept@VModule@llvm@@V?$AnalysisManager@VModule@llvm@@$$V@2@$$V@detail@llvm@@U?$default_delete@U?$PassConcept@VModule@llvm@@V?$AnalysisManager@VModule@llvm@@$$V@2@$$V@detail@llvm@@@std@@@std@@@2@@std@@AEAAAEAV?$unique_ptr@U?$PassConcept@VModule@llvm@@V?$AnalysisManager@VModule@llvm@@$$V@2@$$V@detail@llvm@@U?$default_delete@U?$PassConcept@VModule@llvm@@V?$AnalysisManager@VModule@llvm@@$$V@2@$$V@detail@llvm@@@std@@@1@$$QEAV21@@Z
	??$_Emplace_one_at_back@V?$unique_ptr@U?$PassConcept@VModule@llvm@@V?$AnalysisManager@VModule@llvm@@$$V@2@$$V@detail@llvm@@U?$default_delete@U?$PassConcept@VModule@llvm@@V?$AnalysisManager@VModule@llvm@@$$V@2@$$V@detail@llvm@@@std@@@std@@@?$vector@V?$unique_ptr@U?$PassConcept@VModule@llvm@@V?$AnalysisManager@VModule@llvm@@$$V@2@$$V@detail@llvm@@U?$default_delete@U?$PassConcept@VModule@llvm@@V?$AnalysisManager@VModule@llvm@@$$V@2@$$V@detail@llvm@@@std@@@std@@V?$allocator@V?$unique_ptr@U?$PassConcept@VModule@llvm@@V?$AnalysisManager@VModule@llvm@@$$V@2@$$V@detail@llvm@@U?$default_delete@U?$PassConcept@VModule@llvm@@V?$AnalysisManager@VModule@llvm@@$$V@2@$$V@detail@llvm@@@std@@@std@@@2@@std@@AEAAAEAV?$unique_ptr@U?$PassConcept@VModule@llvm@@V?$AnalysisManager@VModule@llvm@@$$V@2@$$V@detail@llvm@@U?$default_delete@U?$PassConcept@VModule@llvm@@V?$AnalysisManager@VModule@llvm@@$$V@2@$$V@detail@llvm@@@std@@@1@$$QEAV21@@Z
	??$_Emplace_reallocate@V?$unique_ptr@U?$PassConcept@VModule@llvm@@V?$AnalysisManager@VModule@llvm@@$$V@2@$$V@detail@llvm@@U?$default_delete@U?$PassConcept@VModule@llvm@@V?$AnalysisManager@VModule@llvm@@$$V@2@$$V@detail@llvm@@@std@@@std@@@?$vector@V?$unique_ptr@U?$PassConcept@VModule@llvm@@V?$AnalysisManager@VModule@llvm@@$$V@2@$$V@detail@llvm@@U?$default_delete@U?$PassConcept@VModule@llvm@@V?$AnalysisManager@VModule@llvm@@$$V@2@$$V@detail@llvm@@@std@@@std@@V?$allocator@V?$unique_ptr@U?$PassConcept@VModule@llvm@@V?$AnalysisManager@VModule@llvm@@$$V@2@$$V@detail@llvm@@U?$default_delete@U?$PassConcept@VModule@llvm@@V?$AnalysisManager@VModule@llvm@@$$V@2@$$V@detail@llvm@@@std@@@std@@@2@@std@@AEAAPEAV?$unique_ptr@U?$PassConcept@VModule@llvm@@V?$AnalysisManager@VModule@llvm@@$$V@2@$$V@detail@llvm@@U?$default_delete@U?$PassConcept@VModule@llvm@@V?$AnalysisManager@VModule@llvm@@$$V@2@$$V@detail@llvm@@@std@@@1@QEAV21@$$QEAV21@@Z
	??$_Get_size_of_n@$00@std@@YA_K_K@Z
	??$_Get_size_of_n@$07@std@@YA_K_K@Z
	??$_Get_unwrapped@AEAPEAU?$pair@PEAVGlobalVariable@llvm@@VStringRef@2@@std@@@std@@YA?A_TAEAPEAU?$pair@PEAVGlobalVariable@llvm@@VStringRef@2@@0@@Z
	??$_Get_unwrapped@AEBQEAU?$pair@PEAVGlobalVariable@llvm@@V?$basic_string@DU?$char_traits@D@std@@V?$allocator@D@2@@std@@@std@@@std@@YA?A_TAEBQEAU?$pair@PEAVGlobalVariable@llvm@@V?$basic_string@DU?$char_traits@D@std@@V?$allocator@D@2@@std@@@0@@Z
	??$_Get_unwrapped@AEBQEAV?$function@$$A6AXAEAV?$AnalysisManager@VModule@llvm@@$$V@llvm@@@Z@std@@@std@@YA?A_TAEBQEAV?$function@$$A6AXAEAV?$AnalysisManager@VModule@llvm@@$$V@llvm@@@Z@0@@Z
	??$_Get_unwrapped@AEBQEAV?$function@$$A6A_NVStringRef@llvm@@AEAV?$PassManager@VModule@llvm@@V?$AnalysisManager@VModule@llvm@@$$V@2@$$V@2@V?$ArrayRef@UPipelineElement@PassBuilder@llvm@@@2@@Z@std@@@std@@YA?A_TAEBQEAV?$function@$$A6A_NVStringRef@llvm@@AEAV?$PassManager@VModule@llvm@@V?$AnalysisManager@VModule@llvm@@$$V@2@$$V@2@V?$ArrayRef@UPipelineElement@PassBuilder@llvm@@@2@@Z@0@@Z
	??$_Get_unwrapped@AEBQEAV?$unique_ptr@U?$PassConcept@VModule@llvm@@V?$AnalysisManager@VModule@llvm@@$$V@2@$$V@detail@llvm@@U?$default_delete@U?$PassConcept@VModule@llvm@@V?$AnalysisManager@VModule@llvm@@$$V@2@$$V@detail@llvm@@@std@@@std@@@std@@YA?A_TAEBQEAV?$unique_ptr@U?$PassConcept@VModule@llvm@@V?$AnalysisManager@VModule@llvm@@$$V@2@$$V@detail@llvm@@U?$default_delete@U?$PassConcept@VModule@llvm@@V?$AnalysisManager@VModule@llvm@@$$V@2@$$V@detail@llvm@@@std@@@0@@Z
	??$_Get_unwrapped@AEBV?$_String_iterator@V?$_String_val@U?$_Simple_types@D@std@@@std@@@std@@@std@@YA?A_TAEBV?$_String_iterator@V?$_String_val@U?$_Simple_types@D@std@@@std@@@0@@Z
	??$_Get_unwrapped@AEBV?$mapped_iterator@PEAU?$pair@PEAVGlobalVariable@llvm@@VStringRef@2@@std@@P6A?AU?$pair@PEAVGlobalVariable@llvm@@V?$basic_string@DU?$char_traits@D@std@@V?$allocator@D@2@@std@@@2@U12@@ZU32@@llvm@@@std@@YA?A_TAEBV?$mapped_iterator@PEAU?$pair@PEAVGlobalVariable@llvm@@VStringRef@2@@std@@P6A?AU?$pair@PEAVGlobalVariable@llvm@@V?$basic_string@DU?$char_traits@D@std@@V?$allocator@D@2@@std@@@2@U12@@ZU32@@llvm@@@Z
	??$_Get_unwrapped_n@AEAPEAU?$pair@PEAVGlobalVariable@llvm@@V?$basic_string@DU?$char_traits@D@std@@V?$allocator@D@2@@std@@@std@@_J@std@@YA?A_TAEAPEAU?$pair@PEAVGlobalVariable@llvm@@V?$basic_string@DU?$char_traits@D@std@@V?$allocator@D@2@@std@@@0@_J@Z
	??$_Get_unwrapped_n@AEAPEAU?$pair@PEAVGlobalVariable@llvm@@VStringRef@2@@std@@_J@std@@YA?A_TAEAPEAU?$pair@PEAVGlobalVariable@llvm@@VStringRef@2@@0@_J@Z
	??$_Get_unwrapped_n@AEAPEAV?$function@$$A6AXAEAV?$AnalysisManager@VModule@llvm@@$$V@llvm@@@Z@std@@_J@std@@YA?A_TAEAPEAV?$function@$$A6AXAEAV?$AnalysisManager@VModule@llvm@@$$V@llvm@@@Z@0@_J@Z
	??$_Get_unwrapped_n@AEAPEAV?$function@$$A6A_NVStringRef@llvm@@AEAV?$PassManager@VModule@llvm@@V?$AnalysisManager@VModule@llvm@@$$V@2@$$V@2@V?$ArrayRef@UPipelineElement@PassBuilder@llvm@@@2@@Z@std@@_J@std@@YA?A_TAEAPEAV?$function@$$A6A_NVStringRef@llvm@@AEAV?$PassManager@VModule@llvm@@V?$AnalysisManager@VModule@llvm@@$$V@2@$$V@2@V?$ArrayRef@UPipelineElement@PassBuilder@llvm@@@2@@Z@0@_J@Z
	??$_Idl_distance@PEAU?$pair@PEAVGlobalVariable@llvm@@V?$basic_string@DU?$char_traits@D@std@@V?$allocator@D@2@@std@@@std@@PEAU12@@std@@YA?A_PAEBQEAU?$pair@PEAVGlobalVariable@llvm@@V?$basic_string@DU?$char_traits@D@std@@V?$allocator@D@2@@std@@@0@0@Z
	??$_Idl_distance@PEAU?$pair@PEAVGlobalVariable@llvm@@VStringRef@2@@std@@PEAU12@@std@@YA?A_PAEBQEAU?$pair@PEAVGlobalVariable@llvm@@VStringRef@2@@0@0@Z
	??$_Idl_distance@PEAV?$function@$$A6AXAEAV?$AnalysisManager@VModule@llvm@@$$V@llvm@@@Z@std@@PEAV12@@std@@YA?A_PAEBQEAV?$function@$$A6AXAEAV?$AnalysisManager@VModule@llvm@@$$V@llvm@@@Z@0@0@Z
	??$_Idl_distance@PEAV?$function@$$A6A_NVStringRef@llvm@@AEAV?$PassManager@VModule@llvm@@V?$AnalysisManager@VModule@llvm@@$$V@2@$$V@2@V?$ArrayRef@UPipelineElement@PassBuilder@llvm@@@2@@Z@std@@PEAV12@@std@@YA?A_PAEBQEAV?$function@$$A6A_NVStringRef@llvm@@AEAV?$PassManager@VModule@llvm@@V?$AnalysisManager@VModule@llvm@@$$V@2@$$V@2@V?$ArrayRef@UPipelineElement@PassBuilder@llvm@@@2@@Z@0@0@Z
	??$_Idl_distance@V?$mapped_iterator@PEAU?$pair@PEAVGlobalVariable@llvm@@VStringRef@2@@std@@P6A?AU?$pair@PEAVGlobalVariable@llvm@@V?$basic_string@DU?$char_traits@D@std@@V?$allocator@D@2@@std@@@2@U12@@ZU32@@llvm@@V12@@std@@YA?A_PAEBV?$mapped_iterator@PEAU?$pair@PEAVGlobalVariable@llvm@@VStringRef@2@@std@@P6A?AU?$pair@PEAVGlobalVariable@llvm@@V?$basic_string@DU?$char_traits@D@std@@V?$allocator@D@2@@std@@@2@U12@@ZU32@@llvm@@0@Z
	??$_Max_limit@_J@std@@YA_JXZ
	??$_Move_unchecked@PEAU?$pair@PEAVGlobalVariable@llvm@@VStringRef@2@@std@@PEAU12@@std@@YAPEAU?$pair@PEAVGlobalVariable@llvm@@VStringRef@2@@0@PEAU10@00@Z
	??$_Reallocate_grow_by@V<lambda_1>@?0??reserve@?$basic_string@DU?$char_traits@D@std@@V?$allocator@D@2@@std@@QEAAX_K@Z@$$V@?$basic_string@DU?$char_traits@D@std@@V?$allocator@D@2@@std@@AEAAAEAV01@_KV<lambda_1>@?0??reserve@01@QEAAX0@Z@@Z
	??$_Refancy@PEAD$0A@@std@@YAPEADPEAD@Z
	??$_Reset@A6AXAEAV?$AnalysisManager@VModule@llvm@@$$V@llvm@@@Z@?$_Func_class@XAEAV?$AnalysisManager@VModule@llvm@@$$V@llvm@@@std@@IEAAXA6AXAEAV?$AnalysisManager@VModule@llvm@@$$V@llvm@@@Z@Z
	??$_Reset@A6A_NVStringRef@llvm@@AEAV?$PassManager@VModule@llvm@@V?$AnalysisManager@VModule@llvm@@$$V@2@$$V@2@V?$ArrayRef@UPipelineElement@PassBuilder@llvm@@@2@@Z@?$_Func_class@_NVStringRef@llvm@@AEAV?$PassManager@VModule@llvm@@V?$AnalysisManager@VModule@llvm@@$$V@2@$$V@2@V?$ArrayRef@UPipelineElement@PassBuilder@llvm@@@2@@std@@IEAAXA6A_NVStringRef@llvm@@AEAV?$PassManager@VModule@llvm@@V?$AnalysisManager@VModule@llvm@@$$V@2@$$V@3@V?$ArrayRef@UPipelineElement@PassBuilder@llvm@@@3@@Z@Z
	??$_Reverse_vectorized@$00@std@@YAXPEAX0@Z
	??$_Seek_wrapped@PEAU?$pair@PEAVGlobalVariable@llvm@@V?$basic_string@DU?$char_traits@D@std@@V?$allocator@D@2@@std@@@std@@PEAU12@@std@@YAXAEAPEAU?$pair@PEAVGlobalVariable@llvm@@V?$basic_string@DU?$char_traits@D@std@@V?$allocator@D@2@@std@@@0@$$QEAPEAU10@@Z
	??$_Seek_wrapped@PEAU?$pair@PEAVGlobalVariable@llvm@@VStringRef@2@@std@@PEAU12@@std@@YAXAEAPEAU?$pair@PEAVGlobalVariable@llvm@@VStringRef@2@@0@$$QEAPEAU10@@Z
	??$_Seek_wrapped@PEAV?$function@$$A6AXAEAV?$AnalysisManager@VModule@llvm@@$$V@llvm@@@Z@std@@PEAV12@@std@@YAXAEAPEAV?$function@$$A6AXAEAV?$AnalysisManager@VModule@llvm@@$$V@llvm@@@Z@0@$$QEAPEAV10@@Z
	??$_Seek_wrapped@PEAV?$function@$$A6A_NVStringRef@llvm@@AEAV?$PassManager@VModule@llvm@@V?$AnalysisManager@VModule@llvm@@$$V@2@$$V@2@V?$ArrayRef@UPipelineElement@PassBuilder@llvm@@@2@@Z@std@@PEAV12@@std@@YAXAEAPEAV?$function@$$A6A_NVStringRef@llvm@@AEAV?$PassManager@VModule@llvm@@V?$AnalysisManager@VModule@llvm@@$$V@2@$$V@2@V?$ArrayRef@UPipelineElement@PassBuilder@llvm@@@2@@Z@0@$$QEAPEAV10@@Z
	??$_Test_callable@$$A6AXAEAV?$AnalysisManager@VModule@llvm@@$$V@llvm@@@Z@std@@YA_NA6AXAEAV?$AnalysisManager@VModule@llvm@@$$V@llvm@@@Z@Z
	??$_Test_callable@$$A6A_NVStringRef@llvm@@AEAV?$PassManager@VModule@llvm@@V?$AnalysisManager@VModule@llvm@@$$V@2@$$V@2@V?$ArrayRef@UPipelineElement@PassBuilder@llvm@@@2@@Z@std@@YA_NA6A_NVStringRef@llvm@@AEAV?$PassManager@VModule@llvm@@V?$AnalysisManager@VModule@llvm@@$$V@2@$$V@2@V?$ArrayRef@UPipelineElement@PassBuilder@llvm@@@2@@Z@Z
	??$_To_address@PEAD@std@@YA?A_PAEBQEAD@Z
	??$_Tuple_get@$0A@$$QEAPEAVGlobalVariable@llvm@@@std@@YA$$QEA_P$$QEAV?$tuple@$$QEAPEAVGlobalVariable@llvm@@@0@@Z
	??$_Tuple_get@$0A@$$QEAVStringRef@llvm@@@std@@YA$$QEA_P$$QEAV?$tuple@$$QEAVStringRef@llvm@@@0@@Z
	??$_Unfancy@D@std@@YAPEADPEAD@Z
	??$_Unfancy@V?$unique_ptr@U?$PassConcept@VModule@llvm@@V?$AnalysisManager@VModule@llvm@@$$V@2@$$V@detail@llvm@@U?$default_delete@U?$PassConcept@VModule@llvm@@V?$AnalysisManager@VModule@llvm@@$$V@2@$$V@detail@llvm@@@std@@@std@@@std@@YAPEAV?$unique_ptr@U?$PassConcept@VModule@llvm@@V?$AnalysisManager@VModule@llvm@@$$V@2@$$V@detail@llvm@@U?$default_delete@U?$PassConcept@VModule@llvm@@V?$AnalysisManager@VModule@llvm@@$$V@2@$$V@detail@llvm@@@std@@@0@PEAV10@@Z
	??$_Unfancy_maybe_null@$$CBD@std@@YAPEBDPEBD@Z
	??$_Uninitialized_copy_unchecked@V?$mapped_iterator@PEAU?$pair@PEAVGlobalVariable@llvm@@VStringRef@2@@std@@P6A?AU?$pair@PEAVGlobalVariable@llvm@@V?$basic_string@DU?$char_traits@D@std@@V?$allocator@D@2@@std@@@2@U12@@ZU32@@llvm@@PEAU?$pair@PEAVGlobalVariable@llvm@@V?$basic_string@DU?$char_traits@D@std@@V?$allocator@D@2@@std@@@std@@@std@@YAPEAU?$pair@PEAVGlobalVariable@llvm@@V?$basic_string@DU?$char_traits@D@std@@V?$allocator@D@2@@std@@@0@V?$mapped_iterator@PEAU?$pair@PEAVGlobalVariable@llvm@@VStringRef@2@@std@@P6A?AU?$pair@PEAVGlobalVariable@llvm@@V?$basic_string@DU?$char_traits@D@std@@V?$allocator@D@2@@std@@@2@U12@@ZU32@@llvm@@V23@PEAU10@@Z
	??$_Uninitialized_move@PEAV?$unique_ptr@U?$PassConcept@VModule@llvm@@V?$AnalysisManager@VModule@llvm@@$$V@2@$$V@detail@llvm@@U?$default_delete@U?$PassConcept@VModule@llvm@@V?$AnalysisManager@VModule@llvm@@$$V@2@$$V@detail@llvm@@@std@@@std@@V?$allocator@V?$unique_ptr@U?$PassConcept@VModule@llvm@@V?$AnalysisManager@VModule@llvm@@$$V@2@$$V@detail@llvm@@U?$default_delete@U?$PassConcept@VModule@llvm@@V?$AnalysisManager@VModule@llvm@@$$V@2@$$V@detail@llvm@@@std@@@std@@@2@@std@@YAPEAV?$unique_ptr@U?$PassConcept@VModule@llvm@@V?$AnalysisManager@VModule@llvm@@$$V@2@$$V@detail@llvm@@U?$default_delete@U?$PassConcept@VModule@llvm@@V?$AnalysisManager@VModule@llvm@@$$V@2@$$V@detail@llvm@@@std@@@0@QEAV10@0PEAV10@AEAV?$allocator@V?$unique_ptr@U?$PassConcept@VModule@llvm@@V?$AnalysisManager@VModule@llvm@@$$V@2@$$V@detail@llvm@@U?$default_delete@U?$PassConcept@VModule@llvm@@V?$AnalysisManager@VModule@llvm@@$$V@2@$$V@detail@llvm@@@std@@@std@@@0@@Z
	??$_Uninitialized_move_unchecked@PEAU?$pair@PEAVGlobalVariable@llvm@@V?$basic_string@DU?$char_traits@D@std@@V?$allocator@D@2@@std@@@std@@PEAU12@@std@@YAPEAU?$pair@PEAVGlobalVariable@llvm@@V?$basic_string@DU?$char_traits@D@std@@V?$allocator@D@2@@std@@@0@PEAU10@QEAU10@0@Z
	??$_Uninitialized_move_unchecked@PEAV?$function@$$A6AXAEAV?$AnalysisManager@VModule@llvm@@$$V@llvm@@@Z@std@@PEAV12@@std@@YAPEAV?$function@$$A6AXAEAV?$AnalysisManager@VModule@llvm@@$$V@llvm@@@Z@0@PEAV10@QEAV10@0@Z
	??$_Uninitialized_move_unchecked@PEAV?$function@$$A6A_NVStringRef@llvm@@AEAV?$PassManager@VModule@llvm@@V?$AnalysisManager@VModule@llvm@@$$V@2@$$V@2@V?$ArrayRef@UPipelineElement@PassBuilder@llvm@@@2@@Z@std@@PEAV12@@std@@YAPEAV?$function@$$A6A_NVStringRef@llvm@@AEAV?$PassManager@VModule@llvm@@V?$AnalysisManager@VModule@llvm@@$$V@2@$$V@2@V?$ArrayRef@UPipelineElement@PassBuilder@llvm@@@2@@Z@0@PEAV10@QEAV10@0@Z
	??$addPass@VStringAnalyzerPrinter@jvs@@@?$PassManager@VModule@llvm@@V?$AnalysisManager@VModule@llvm@@$$V@2@$$V@llvm@@QEAAX$$QEAVStringAnalyzerPrinter@jvs@@@Z
	??$addPass@VStringReverser@jvs@@@?$PassManager@VModule@llvm@@V?$AnalysisManager@VModule@llvm@@$$V@2@$$V@llvm@@QEAAX$$QEAVStringReverser@jvs@@@Z
	??$advance@PEAU?$pair@PEAVGlobalVariable@llvm@@VStringRef@2@@std@@_J@std@@YAXAEAPEAU?$pair@PEAVGlobalVariable@llvm@@VStringRef@2@@0@_J@Z
	??$allInSet@VCFGAnalyses@llvm@@@PreservedAnalyses@llvm@@SA?AV01@XZ
	??$append@V?$mapped_iterator@PEAU?$pair@PEAVGlobalVariable@llvm@@VStringRef@2@@std@@P6A?AU?$pair@PEAVGlobalVariable@llvm@@V?$basic_string@DU?$char_traits@D@std@@V?$allocator@D@2@@std@@@2@U12@@ZU32@@llvm@@X@?$SmallVectorImpl@U?$pair@PEAVGlobalVariable@llvm@@V?$basic_string@DU?$char_traits@D@std@@V?$allocator@D@2@@std@@@std@@@llvm@@QEAAXV?$mapped_iterator@PEAU?$pair@PEAVGlobalVariable@llvm@@VStringRef@2@@std@@P6A?AU?$pair@PEAVGlobalVariable@llvm@@V?$basic_string@DU?$char_traits@D@std@@V?$allocator@D@2@@std@@@2@U12@@ZU32@@1@0@Z
	??$assertSafeToAddRange@V?$mapped_iterator@PEAU?$pair@PEAVGlobalVariable@llvm@@VStringRef@2@@std@@P6A?AU?$pair@PEAVGlobalVariable@llvm@@V?$basic_string@DU?$char_traits@D@std@@V?$allocator@D@2@@std@@@2@U12@@ZU32@@llvm@@$0A@@?$SmallVectorTemplateCommon@U?$pair@PEAVGlobalVariable@llvm@@V?$basic_string@DU?$char_traits@D@std@@V?$allocator@D@2@@std@@@std@@X@llvm@@IEAAXV?$mapped_iterator@PEAU?$pair@PEAVGlobalVariable@llvm@@VStringRef@2@@std@@P6A?AU?$pair@PEAVGlobalVariable@llvm@@V?$basic_string@DU?$char_traits@D@std@@V?$allocator@D@2@@std@@@2@U12@@ZU32@@1@0@Z
	??$begin@V?$MapVector@PEAVGlobalVariable@llvm@@VStringRef@2@V?$DenseMap@PEAVGlobalVariable@llvm@@IU?$DenseMapInfo@PEAVGlobalVariable@llvm@@X@2@U?$DenseMapPair@PEAVGlobalVariable@llvm@@I@detail@2@@2@V?$SmallVector@U?$pair@PEAVGlobalVariable@llvm@@VStringRef@2@@std@@$0A@@2@@llvm@@@std@@YAPEAU?$pair@PEAVGlobalVariable@llvm@@VStringRef@2@@0@AEAV?$MapVector@PEAVGlobalVariable@llvm@@VStringRef@2@V?$DenseMap@PEAVGlobalVariable@llvm@@IU?$DenseMapInfo@PEAVGlobalVariable@llvm@@X@2@U?$DenseMapPair@PEAVGlobalVariable@llvm@@I@detail@2@@2@V?$SmallVector@U?$pair@PEAVGlobalVariable@llvm@@VStringRef@2@@std@@$0A@@2@@llvm@@@Z
	??$begin@V?$iterator_range@V?$ilist_iterator@U?$node_options@VGlobalVariable@llvm@@$00$0A@X$0A@X@ilist_detail@llvm@@$0A@$0A@@llvm@@@llvm@@@std@@YA?AV?$ilist_iterator@U?$node_options@VGlobalVariable@llvm@@$00$0A@X$0A@X@ilist_detail@llvm@@$0A@$0A@@llvm@@AEBV?$iterator_range@V?$ilist_iterator@U?$node_options@VGlobalVariable@llvm@@$00$0A@X$0A@X@ilist_detail@llvm@@$0A@$0A@@llvm@@@2@@Z
	??$begin@V?$iterator_range@V?$mapped_iterator@PEAU?$pair@PEAVGlobalVariable@llvm@@VStringRef@2@@std@@P6A?AU?$pair@PEAVGlobalVariable@llvm@@V?$basic_string@DU?$char_traits@D@std@@V?$allocator@D@2@@std@@@2@U12@@ZU32@@llvm@@@llvm@@@std@@YA?AV?$mapped_iterator@PEAU?$pair@PEAVGlobalVariable@llvm@@VStringRef@2@@std@@P6A?AU?$pair@PEAVGlobalVariable@llvm@@V?$basic_string@DU?$char_traits@D@std@@V?$allocator@D@2@@std@@@2@U12@@ZU32@@llvm@@AEAV?$iterator_range@V?$mapped_iterator@PEAU?$pair@PEAVGlobalVariable@llvm@@VStringRef@2@@std@@P6A?AU?$pair@PEAVGlobalVariable@llvm@@V?$basic_string@DU?$char_traits@D@std@@V?$allocator@D@2@@std@@@2@U12@@ZU32@@llvm@@@2@@Z
	??$begin@V?$iterator_range@V?$user_iterator_impl@VUser@llvm@@@Value@llvm@@@llvm@@@std@@YA?AV?$user_iterator_impl@VUser@llvm@@@Value@llvm@@AEAV?$iterator_range@V?$user_iterator_impl@VUser@llvm@@@Value@llvm@@@3@@Z
	??$cast@VConstantDataArray@llvm@@VConstant@2@@llvm@@YA?A_TPEAVConstant@0@@Z
	??$construct@V?$unique_ptr@U?$PassConcept@VModule@llvm@@V?$AnalysisManager@VModule@llvm@@$$V@2@$$V@detail@llvm@@U?$default_delete@U?$PassConcept@VModule@llvm@@V?$AnalysisManager@VModule@llvm@@$$V@2@$$V@detail@llvm@@@std@@@std@@V12@@?$_Default_allocator_traits@V?$allocator@V?$unique_ptr@U?$PassConcept@VModule@llvm@@V?$AnalysisManager@VModule@llvm@@$$V@2@$$V@detail@llvm@@U?$default_delete@U?$PassConcept@VModule@llvm@@V?$AnalysisManager@VModule@llvm@@$$V@2@$$V@detail@llvm@@@std@@@std@@@std@@@std@@SAXAEAV?$allocator@V?$unique_ptr@U?$PassConcept@VModule@llvm@@V?$AnalysisManager@VModule@llvm@@$$V@2@$$V@detail@llvm@@U?$default_delete@U?$PassConcept@VModule@llvm@@V?$AnalysisManager@VModule@llvm@@$$V@2@$$V@detail@llvm@@@std@@@std@@@1@QEAV?$unique_ptr@U?$PassConcept@VModule@llvm@@V?$AnalysisManager@VModule@llvm@@$$V@2@$$V@detail@llvm@@U?$default_delete@U?$PassConcept@VModule@llvm@@V?$AnalysisManager@VModule@llvm@@$$V@2@$$V@detail@llvm@@@std@@@1@$$QEAV31@@Z
	??$construct_at@V?$unique_ptr@U?$PassConcept@VModule@llvm@@V?$AnalysisManager@VModule@llvm@@$$V@2@$$V@detail@llvm@@U?$default_delete@U?$PassConcept@VModule@llvm@@V?$AnalysisManager@VModule@llvm@@$$V@2@$$V@detail@llvm@@@std@@@std@@V12@@std@@YAPEAV?$unique_ptr@U?$PassConcept@VModule@llvm@@V?$AnalysisManager@VModule@llvm@@$$V@2@$$V@detail@llvm@@U?$default_delete@U?$PassConcept@VModule@llvm@@V?$AnalysisManager@VModule@llvm@@$$V@2@$$V@detail@llvm@@@std@@@0@QEAV10@$$QEAV10@@Z
	??$convertIn@AEAP6A?AU?$pair@PEAVGlobalVariable@llvm@@V?$basic_string@DU?$char_traits@D@std@@V?$allocator@D@2@@std@@@std@@U?$pair@PEAVGlobalVariable@llvm@@VStringRef@2@@2@@Z@?$Callable@P6A?AU?$pair@PEAVGlobalVariable@llvm@@V?$basic_string@DU?$char_traits@D@std@@V?$allocator@D@2@@std@@@std@@U?$pair@PEAVGlobalVariable@llvm@@VStringRef@2@@2@@Z$00@callable_detail@llvm@@CA?A_PAEAP6A?AU?$pair@PEAVGlobalVariable@llvm@@V?$basic_string@DU?$char_traits@D@std@@V?$allocator@D@2@@std@@@std@@U?$pair@PEAVGlobalVariable@llvm@@VStringRef@2@@4@@Z@Z
	??$destroy@V?$unique_ptr@U?$PassConcept@VModule@llvm@@V?$AnalysisManager@VModule@llvm@@$$V@2@$$V@detail@llvm@@U?$default_delete@U?$PassConcept@VModule@llvm@@V?$AnalysisManager@VModule@llvm@@$$V@2@$$V@detail@llvm@@@std@@@std@@@?$_Default_allocator_traits@V?$allocator@V?$unique_ptr@U?$PassConcept@VModule@llvm@@V?$AnalysisManager@VModule@llvm@@$$V@2@$$V@detail@llvm@@U?$default_delete@U?$PassConcept@VModule@llvm@@V?$AnalysisManager@VModule@llvm@@$$V@2@$$V@detail@llvm@@@std@@@std@@@std@@@std@@SAXAEAV?$allocator@V?$unique_ptr@U?$PassConcept@VModule@llvm@@V?$AnalysisManager@VModule@llvm@@$$V@2@$$V@detail@llvm@@U?$default_delete@U?$PassConcept@VModule@llvm@@V?$AnalysisManager@VModule@llvm@@$$V@2@$$V@detail@llvm@@@std@@@std@@@1@QEAV?$unique_ptr@U?$PassConcept@VModule@llvm@@V?$AnalysisManager@VModule@llvm@@$$V@2@$$V@detail@llvm@@U?$default_delete@U?$PassConcept@VModule@llvm@@V?$AnalysisManager@VModule@llvm@@$$V@2@$$V@detail@llvm@@@std@@@1@@Z
	??$destroy_at@V?$unique_ptr@U?$PassConcept@VModule@llvm@@V?$AnalysisManager@VModule@llvm@@$$V@2@$$V@detail@llvm@@U?$default_delete@U?$PassConcept@VModule@llvm@@V?$AnalysisManager@VModule@llvm@@$$V@2@$$V@detail@llvm@@@std@@@std@@@std@@YAXQEAV?$unique_ptr@U?$PassConcept@VModule@llvm@@V?$AnalysisManager@VModule@llvm@@$$V@2@$$V@detail@llvm@@U?$default_delete@U?$PassConcept@VModule@llvm@@V?$AnalysisManager@VModule@llvm@@$$V@2@$$V@detail@llvm@@@std@@@0@@Z
	??$distance@V?$mapped_iterator@PEAU?$pair@PEAVGlobalVariable@llvm@@VStringRef@2@@std@@P6A?AU?$pair@PEAVGlobalVariable@llvm@@V?$basic_string@DU?$char_traits@D@std@@V?$allocator@D@2@@std@@@2@U12@@ZU32@@llvm@@@std@@YA_JV?$mapped_iterator@PEAU?$pair@PEAVGlobalVariable@llvm@@VStringRef@2@@std@@P6A?AU?$pair@PEAVGlobalVariable@llvm@@V?$basic_string@DU?$char_traits@D@std@@V?$allocator@D@2@@std@@@2@U12@@ZU32@@llvm@@0@Z
	??$doFind@PEBUAnalysisKey@llvm@@@?$DenseMapBase@V?$DenseMap@PEAUAnalysisKey@llvm@@V?$unique_ptr@U?$AnalysisPassConcept@VModule@llvm@@VInvalidator@?$AnalysisManager@VModule@llvm@@$$V@2@$$V@detail@llvm@@U?$default_delete@U?$AnalysisPassConcept@VModule@llvm@@VInvalidator@?$AnalysisManager@VModule@llvm@@$$V@2@$$V@detail@llvm@@@std@@@std@@U?$DenseMapInfo@PEAUAnalysisKey@llvm@@X@2@U?$DenseMapPair@PEAUAnalysisKey@llvm@@V?$unique_ptr@U?$AnalysisPassConcept@VModule@llvm@@VInvalidator@?$AnalysisManager@VModule@llvm@@$$V@2@$$V@detail@llvm@@U?$default_delete@U?$AnalysisPassConcept@VModule@llvm@@VInvalidator@?$AnalysisManager@VModule@llvm@@$$V@2@$$V@detail@llvm@@@std@@@std@@@detail@2@@llvm@@PEAUAnalysisKey@2@V?$unique_ptr@U?$AnalysisPassConcept@VModule@llvm@@VInvalidator@?$AnalysisManager@VModule@llvm@@$$V@2@$$V@detail@llvm@@U?$default_delete@U?$AnalysisPassConcept@VModule@llvm@@VInvalidator@?$AnalysisManager@VModule@llvm@@$$V@2@$$V@detail@llvm@@@std@@@std@@U?$DenseMapInfo@PEAUAnalysisKey@llvm@@X@2@U?$DenseMapPair@PEAUAnalysisKey@llvm@@V?$unique_ptr@U?$AnalysisPassConcept@VModule@llvm@@VInvalidator@?$AnalysisManager@VModule@llvm@@$$V@2@$$V@detail@llvm@@U?$default_delete@U?$AnalysisPassConcept@VModule@llvm@@VInvalidator@?$AnalysisManager@VModule@llvm@@$$V@2@$$V@detail@llvm@@@std@@@std@@@detail@2@@llvm@@AEAAPEAU?$DenseMapPair@PEAUAnalysisKey@llvm@@V?$unique_ptr@U?$AnalysisPassConcept@VModule@llvm@@VInvalidator@?$AnalysisManager@VModule@llvm@@$$V@2@$$V@detail@llvm@@U?$default_delete@U?$AnalysisPassConcept@VModule@llvm@@VInvalidator@?$AnalysisManager@VModule@llvm@@$$V@2@$$V@detail@llvm@@@std@@@std@@@detail@1@AEBQEBUAnalysisKey@1@@Z
	??$doFind@PEBUAnalysisKey@llvm@@@?$DenseMapBase@V?$DenseMap@PEAUAnalysisKey@llvm@@V?$unique_ptr@U?$AnalysisPassConcept@VModule@llvm@@VInvalidator@?$AnalysisManager@VModule@llvm@@$$V@2@$$V@detail@llvm@@U?$default_delete@U?$AnalysisPassConcept@VModule@llvm@@VInvalidator@?$AnalysisManager@VModule@llvm@@$$V@2@$$V@detail@llvm@@@std@@@std@@U?$DenseMapInfo@PEAUAnalysisKey@llvm@@X@2@U?$DenseMapPair@PEAUAnalysisKey@llvm@@V?$unique_ptr@U?$AnalysisPassConcept@VModule@llvm@@VInvalidator@?$AnalysisManager@VModule@llvm@@$$V@2@$$V@detail@llvm@@U?$default_delete@U?$AnalysisPassConcept@VModule@llvm@@VInvalidator@?$AnalysisManager@VModule@llvm@@$$V@2@$$V@detail@llvm@@@std@@@std@@@detail@2@@llvm@@PEAUAnalysisKey@2@V?$unique_ptr@U?$AnalysisPassConcept@VModule@llvm@@VInvalidator@?$AnalysisManager@VModule@llvm@@$$V@2@$$V@detail@llvm@@U?$default_delete@U?$AnalysisPassConcept@VModule@llvm@@VInvalidator@?$AnalysisManager@VModule@llvm@@$$V@2@$$V@detail@llvm@@@std@@@std@@U?$DenseMapInfo@PEAUAnalysisKey@llvm@@X@2@U?$DenseMapPair@PEAUAnalysisKey@llvm@@V?$unique_ptr@U?$AnalysisPassConcept@VModule@llvm@@VInvalidator@?$AnalysisManager@VModule@llvm@@$$V@2@$$V@detail@llvm@@U?$default_delete@U?$AnalysisPassConcept@VModule@llvm@@VInvalidator@?$AnalysisManager@VModule@llvm@@$$V@2@$$V@detail@llvm@@@std@@@std@@@detail@2@@llvm@@AEBAPEBU?$DenseMapPair@PEAUAnalysisKey@llvm@@V?$unique_ptr@U?$AnalysisPassConcept@VModule@llvm@@VInvalidator@?$AnalysisManager@VModule@llvm@@$$V@2@$$V@detail@llvm@@U?$default_delete@U?$AnalysisPassConcept@VModule@llvm@@VInvalidator@?$AnalysisManager@VModule@llvm@@$$V@2@$$V@detail@llvm@@@std@@@std@@@detail@1@AEBQEBUAnalysisKey@1@@Z
	??$dyn_cast@VConstantDataArray@llvm@@$$CBVConstant@2@@llvm@@YA?A_TPEBVConstant@0@@Z
	??$dyn_cast@VInstruction@llvm@@$$CBVUser@2@@llvm@@YA?A_TPEBVUser@0@@Z
	??$emplace_back@AEBUpiecewise_construct_t@std@@V?$tuple@$$QEAPEAVGlobalVariable@llvm@@@2@V?$tuple@$$QEAVStringRef@llvm@@@2@@?$SmallVectorImpl@U?$pair@PEAVGlobalVariable@llvm@@VStringRef@2@@std@@@llvm@@QEAAAEAU?$pair@PEAVGlobalVariable@llvm@@VStringRef@2@@std@@AEBUpiecewise_construct_t@3@$$QEAV?$tuple@$$QEAPEAVGlobalVariable@llvm@@@3@$$QEAV?$tuple@$$QEAVStringRef@llvm@@@3@@Z
	??$end@V?$MapVector@PEAVGlobalVariable@llvm@@VStringRef@2@V?$DenseMap@PEAVGlobalVariable@llvm@@IU?$DenseMapInfo@PEAVGlobalVariable@llvm@@X@2@U?$DenseMapPair@PEAVGlobalVariable@llvm@@I@detail@2@@2@V?$SmallVector@U?$pair@PEAVGlobalVariable@llvm@@VStringRef@2@@std@@$0A@@2@@llvm@@@std@@YAPEAU?$pair@PEAVGlobalVariable@llvm@@VStringRef@2@@0@AEAV?$MapVector@PEAVGlobalVariable@llvm@@VStringRef@2@V?$DenseMap@PEAVGlobalVariable@llvm@@IU?$DenseMapInfo@PEAVGlobalVariable@llvm@@X@2@U?$DenseMapPair@PEAVGlobalVariable@llvm@@I@detail@2@@2@V?$SmallVector@U?$pair@PEAVGlobalVariable@llvm@@VStringRef@2@@std@@$0A@@2@@llvm@@@Z
	??$end@V?$iterator_range@V?$ilist_iterator@U?$node_options@VGlobalVariable@llvm@@$00$0A@X$0A@X@ilist_detail@llvm@@$0A@$0A@@llvm@@@llvm@@@std@@YA?AV?$ilist_iterator@U?$node_options@VGlobalVariable@llvm@@$00$0A@X$0A@X@ilist_detail@llvm@@$0A@$0A@@llvm@@AEBV?$iterator_range@V?$ilist_iterator@U?$node_options@VGlobalVariable@llvm@@$00$0A@X$0A@X@ilist_detail@llvm@@$0A@$0A@@llvm@@@2@@Z
	??$end@V?$iterator_range@V?$mapped_iterator@PEAU?$pair@PEAVGlobalVariable@llvm@@VStringRef@2@@std@@P6A?AU?$pair@PEAVGlobalVariable@llvm@@V?$basic_string@DU?$char_traits@D@std@@V?$allocator@D@2@@std@@@2@U12@@ZU32@@llvm@@@llvm@@@std@@YA?AV?$mapped_iterator@PEAU?$pair@PEAVGlobalVariable@llvm@@VStringRef@2@@std@@P6A?AU?$pair@PEAVGlobalVariable@llvm@@V?$basic_string@DU?$char_traits@D@std@@V?$allocator@D@2@@std@@@2@U12@@ZU32@@llvm@@AEAV?$iterator_range@V?$mapped_iterator@PEAU?$pair@PEAVGlobalVariable@llvm@@VStringRef@2@@std@@P6A?AU?$pair@PEAVGlobalVariable@llvm@@V?$basic_string@DU?$char_traits@D@std@@V?$allocator@D@2@@std@@@2@U12@@ZU32@@llvm@@@2@@Z
	??$end@V?$iterator_range@V?$user_iterator_impl@VUser@llvm@@@Value@llvm@@@llvm@@@std@@YA?AV?$user_iterator_impl@VUser@llvm@@@Value@llvm@@AEAV?$iterator_range@V?$user_iterator_impl@VUser@llvm@@@Value@llvm@@@3@@Z
	??$exchange@PEAU?$AnalysisPassConcept@VModule@llvm@@VInvalidator@?$AnalysisManager@VModule@llvm@@$$V@2@$$V@detail@llvm@@$$T@std@@YAPEAU?$AnalysisPassConcept@VModule@llvm@@VInvalidator@?$AnalysisManager@VModule@llvm@@$$V@2@$$V@detail@llvm@@AEAPEAU123@$$QEA$$T@Z
	??$exchange@PEAU?$AnalysisPassConcept@VModule@llvm@@VInvalidator@?$AnalysisManager@VModule@llvm@@$$V@2@$$V@detail@llvm@@AEAPEAU123@@std@@YAPEAU?$AnalysisPassConcept@VModule@llvm@@VInvalidator@?$AnalysisManager@VModule@llvm@@$$V@2@$$V@detail@llvm@@AEAPEAU123@0@Z
	??$exchange@PEAU?$AnalysisResultModel@VModule@llvm@@VPassInstrumentationAnalysis@2@VPassInstrumentation@2@VInvalidator@?$AnalysisManager@VModule@llvm@@$$V@2@$00@detail@llvm@@$$T@std@@YAPEAU?$AnalysisResultModel@VModule@llvm@@VPassInstrumentationAnalysis@2@VPassInstrumentation@2@VInvalidator@?$AnalysisManager@VModule@llvm@@$$V@2@$00@detail@llvm@@AEAPEAU123@$$QEA$$T@Z
	??$exchange@PEAU?$AnalysisResultModel@VModule@llvm@@VStringAnalyzer@jvs@@V?$MapVector@PEAVGlobalVariable@llvm@@VStringRef@2@V?$DenseMap@PEAVGlobalVariable@llvm@@IU?$DenseMapInfo@PEAVGlobalVariable@llvm@@X@2@U?$DenseMapPair@PEAVGlobalVariable@llvm@@I@detail@2@@2@V?$SmallVector@U?$pair@PEAVGlobalVariable@llvm@@VStringRef@2@@std@@$0A@@2@@2@VInvalidator@?$AnalysisManager@VModule@llvm@@$$V@2@$0A@@detail@llvm@@$$T@std@@YAPEAU?$AnalysisResultModel@VModule@llvm@@VStringAnalyzer@jvs@@V?$MapVector@PEAVGlobalVariable@llvm@@VStringRef@2@V?$DenseMap@PEAVGlobalVariable@llvm@@IU?$DenseMapInfo@PEAVGlobalVariable@llvm@@X@2@U?$DenseMapPair@PEAVGlobalVariable@llvm@@I@detail@2@@2@V?$SmallVector@U?$pair@PEAVGlobalVariable@llvm@@VStringRef@2@@std@@$0A@@2@@2@VInvalidator@?$AnalysisManager@VModule@llvm@@$$V@2@$0A@@detail@llvm@@AEAPEAU123@$$QEA$$T@Z
	??$exchange@PEAU?$PassConcept@VModule@llvm@@V?$AnalysisManager@VModule@llvm@@$$V@2@$$V@detail@llvm@@$$T@std@@YAPEAU?$PassConcept@VModule@llvm@@V?$AnalysisManager@VModule@llvm@@$$V@2@$$V@detail@llvm@@AEAPEAU123@$$QEA$$T@Z
	??$forward_as_tuple@PEAVGlobalVariable@llvm@@@std@@YA?AV?$tuple@$$QEAPEAVGlobalVariable@llvm@@@0@$$QEAPEAVGlobalVariable@llvm@@@Z
	??$forward_as_tuple@VStringRef@llvm@@@std@@YA?AV?$tuple@$$QEAVStringRef@llvm@@@0@$$QEAVStringRef@llvm@@@Z
	??$get@$00PEAVGlobalVariable@llvm@@V?$basic_string@DU?$char_traits@D@std@@V?$allocator@D@2@@std@@@std@@YA$$QEAV?$basic_string@DU?$char_traits@D@std@@V?$allocator@D@2@@0@$$QEAU?$pair@PEAVGlobalVariable@llvm@@V?$basic_string@DU?$char_traits@D@std@@V?$allocator@D@2@@std@@@0@@Z
	??$get@$00PEAVGlobalVariable@llvm@@VStringRef@2@@std@@YA$$QEAVStringRef@llvm@@$$QEAU?$pair@PEAVGlobalVariable@llvm@@VStringRef@2@@0@@Z
	??$get@$00V?$DenseMapIterator@PEAVGlobalVariable@llvm@@IU?$DenseMapInfo@PEAVGlobalVariable@llvm@@X@2@U?$DenseMapPair@PEAVGlobalVariable@llvm@@I@detail@2@$0A@@llvm@@_N@std@@YA$$QEA_N$$QEAU?$pair@V?$DenseMapIterator@PEAVGlobalVariable@llvm@@IU?$DenseMapInfo@PEAVGlobalVariable@llvm@@X@2@U?$DenseMapPair@PEAVGlobalVariable@llvm@@I@detail@2@$0A@@llvm@@_N@0@@Z
	??$get@$0A@PEAVGlobalVariable@llvm@@V?$basic_string@DU?$char_traits@D@std@@V?$allocator@D@2@@std@@@std@@YA$$QEAPEAVGlobalVariable@llvm@@$$QEAU?$pair@PEAVGlobalVariable@llvm@@V?$basic_string@DU?$char_traits@D@std@@V?$allocator@D@2@@std@@@0@@Z
	??$get@$0A@PEAVGlobalVariable@llvm@@VStringRef@2@@std@@YA$$QEAPEAVGlobalVariable@llvm@@$$QEAU?$pair@PEAVGlobalVariable@llvm@@VStringRef@2@@0@@Z
	??$get@$0A@V?$DenseMapIterator@PEAVGlobalVariable@llvm@@IU?$DenseMapInfo@PEAVGlobalVariable@llvm@@X@2@U?$DenseMapPair@PEAVGlobalVariable@llvm@@I@detail@2@$0A@@llvm@@_N@std@@YA$$QEAV?$DenseMapIterator@PEAVGlobalVariable@llvm@@IU?$DenseMapInfo@PEAVGlobalVariable@llvm@@X@2@U?$DenseMapPair@PEAVGlobalVariable@llvm@@I@detail@2@$0A@@llvm@@$$QEAU?$pair@V?$DenseMapIterator@PEAVGlobalVariable@llvm@@IU?$DenseMapInfo@PEAVGlobalVariable@llvm@@X@2@U?$DenseMapPair@PEAVGlobalVariable@llvm@@I@detail@2@$0A@@llvm@@_N@0@@Z
	??$getChecker@VStringAnalyzer@jvs@@@PreservedAnalyses@llvm@@QEBA?AVPreservedAnalysisChecker@01@XZ
	??$getHashValue@PEBUAnalysisKey@llvm@@@?$DenseMapBase@V?$DenseMap@PEAUAnalysisKey@llvm@@V?$unique_ptr@U?$AnalysisPassConcept@VModule@llvm@@VInvalidator@?$AnalysisManager@VModule@llvm@@$$V@2@$$V@detail@llvm@@U?$default_delete@U?$AnalysisPassConcept@VModule@llvm@@VInvalidator@?$AnalysisManager@VModule@llvm@@$$V@2@$$V@detail@llvm@@@std@@@std@@U?$DenseMapInfo@PEAUAnalysisKey@llvm@@X@2@U?$DenseMapPair@PEAUAnalysisKey@llvm@@V?$unique_ptr@U?$AnalysisPassConcept@VModule@llvm@@VInvalidator@?$AnalysisManager@VModule@llvm@@$$V@2@$$V@detail@llvm@@U?$default_delete@U?$AnalysisPassConcept@VModule@llvm@@VInvalidator@?$AnalysisManager@VModule@llvm@@$$V@2@$$V@detail@llvm@@@std@@@std@@@detail@2@@llvm@@PEAUAnalysisKey@2@V?$unique_ptr@U?$AnalysisPassConcept@VModule@llvm@@VInvalidator@?$AnalysisManager@VModule@llvm@@$$V@2@$$V@detail@llvm@@U?$default_delete@U?$AnalysisPassConcept@VModule@llvm@@VInvalidator@?$AnalysisManager@VModule@llvm@@$$V@2@$$V@detail@llvm@@@std@@@std@@U?$DenseMapInfo@PEAUAnalysisKey@llvm@@X@2@U?$DenseMapPair@PEAUAnalysisKey@llvm@@V?$unique_ptr@U?$AnalysisPassConcept@VModule@llvm@@VInvalidator@?$AnalysisManager@VModule@llvm@@$$V@2@$$V@detail@llvm@@U?$default_delete@U?$AnalysisPassConcept@VModule@llvm@@VInvalidator@?$AnalysisManager@VModule@llvm@@$$V@2@$$V@detail@llvm@@@std@@@std@@@detail@2@@llvm@@KAIAEBQEBUAnalysisKey@1@@Z
	??$getResult@VStringAnalyzer@jvs@@@?$AnalysisManager@VModule@llvm@@$$V@llvm@@QEAAAEAV?$MapVector@PEAVGlobalVariable@llvm@@VStringRef@2@V?$DenseMap@PEAVGlobalVariable@llvm@@IU?$DenseMapInfo@PEAVGlobalVariable@llvm@@X@2@U?$DenseMapPair@PEAVGlobalVariable@llvm@@I@detail@2@@2@V?$SmallVector@U?$pair@PEAVGlobalVariable@llvm@@VStringRef@2@@std@@$0A@@2@@1@AEAVModule@1@@Z
	??$getTypeName@VPassInstrumentationAnalysis@llvm@@@llvm@@YA?AVStringRef@0@XZ
	??$getValuePtr@U?$node_options@VGlobalVariable@llvm@@$00$0A@X$0A@X@ilist_detail@llvm@@@NodeAccess@ilist_detail@llvm@@KAPEAVGlobalVariable@2@PEAV?$ilist_node_impl@U?$node_options@VGlobalVariable@llvm@@$00$0A@X$0A@X@ilist_detail@llvm@@@2@@Z
	??$growAndEmplaceBack@AEBUpiecewise_construct_t@std@@V?$tuple@$$QEAPEAVGlobalVariable@llvm@@@2@V?$tuple@$$QEAVStringRef@llvm@@@2@@?$SmallVectorTemplateBase@U?$pair@PEAVGlobalVariable@llvm@@VStringRef@2@@std@@$00@llvm@@IEAAAEAU?$pair@PEAVGlobalVariable@llvm@@VStringRef@2@@std@@AEBUpiecewise_construct_t@3@$$QEAV?$tuple@$$QEAPEAVGlobalVariable@llvm@@@3@$$QEAV?$tuple@$$QEAVStringRef@llvm@@@3@@Z
	??$invalidate@VModule@llvm@@VInvalidator@?$AnalysisManager@VModule@llvm@@$$V@2@@PassInstrumentation@llvm@@QEAA_NAEAVModule@1@AEBVPreservedAnalyses@1@VInvalidator@?$AnalysisManager@VModule@llvm@@$$V@1@@Z
	??$invoke@AEAP6AXAEAV?$AnalysisManager@VModule@llvm@@$$V@llvm@@@ZAEAV12@$$V@std@@YAXAEAP6AXAEAV?$AnalysisManager@VModule@llvm@@$$V@llvm@@@Z0@Z
	??$invoke@AEAP6A_NVStringRef@llvm@@AEAV?$PassManager@VModule@llvm@@V?$AnalysisManager@VModule@llvm@@$$V@2@$$V@2@V?$ArrayRef@UPipelineElement@PassBuilder@llvm@@@2@@ZV12@AEAV32@V42@@std@@YA_NAEAP6A_NVStringRef@llvm@@AEAV?$PassManager@VModule@llvm@@V?$AnalysisManager@VModule@llvm@@$$V@2@$$V@2@V?$ArrayRef@UPipelineElement@PassBuilder@llvm@@@2@@Z$$QEAV12@1$$QEAV42@@Z
	??$isPresent@PEBVConstant@llvm@@@detail@llvm@@YA_NAEBQEBVConstant@1@@Z
	??$isPresent@PEBVUser@llvm@@@detail@llvm@@YA_NAEBQEBVUser@1@@Z
	??$isa@VConstantDataArray@llvm@@PEAVConstant@2@@llvm@@YA_NAEBQEAVConstant@0@@Z
	??$make_filter_range@V?$iterator_range@V?$ilist_iterator@U?$node_options@VGlobalVariable@llvm@@$00$0A@X$0A@X@ilist_detail@llvm@@$0A@$0A@@llvm@@@llvm@@P6A_NAEBVGlobalVariable@2@@_E@llvm@@YA?AV?$iterator_range@V?$filter_iterator_impl@V?$ilist_iterator@U?$node_options@VGlobalVariable@llvm@@$00$0A@X$0A@X@ilist_detail@llvm@@$0A@$0A@@llvm@@P6A_NAEBVGlobalVariable@2@@_EUbidirectional_iterator_tag@std@@@llvm@@@0@$$QEAV?$iterator_range@V?$ilist_iterator@U?$node_options@VGlobalVariable@llvm@@$00$0A@X$0A@X@ilist_detail@llvm@@$0A@$0A@@llvm@@@0@P6A_NAEBVGlobalVariable@0@@_E@Z
	??$make_pair@AEAPEAPEBX_N@std@@YA?AU?$pair@PEAPEBX_N@0@AEAPEAPEBX$$QEA_N@Z
	??$make_pair@AEAPEAVGlobalVariable@llvm@@H@std@@YA?AU?$pair@PEAVGlobalVariable@llvm@@H@0@AEAPEAVGlobalVariable@llvm@@$$QEAH@Z
	??$make_pair@PEAPEBX_N@std@@YA?AU?$pair@PEAPEBX_N@0@$$QEAPEAPEBX$$QEA_N@Z
	??$make_pair@PEAU?$pair@PEAVGlobalVariable@llvm@@VStringRef@2@@std@@_N@std@@YA?AU?$pair@PEAU?$pair@PEAVGlobalVariable@llvm@@VStringRef@2@@std@@_N@0@$$QEAPEAU?$pair@PEAVGlobalVariable@llvm@@VStringRef@2@@0@$$QEA_N@Z
	??$make_pair@V?$DenseMapIterator@PEAVGlobalVariable@llvm@@IU?$DenseMapInfo@PEAVGlobalVariable@llvm@@X@2@U?$DenseMapPair@PEAVGlobalVariable@llvm@@I@detail@2@$0A@@llvm@@_N@std@@YA?AU?$pair@V?$DenseMapIterator@PEAVGlobalVariable@llvm@@IU?$DenseMapInfo@PEAVGlobalVariable@llvm@@X@2@U?$DenseMapPair@PEAVGlobalVariable@llvm@@I@detail@2@$0A@@llvm@@_N@0@$$QEAV?$DenseMapIterator@PEAVGlobalVariable@llvm@@IU?$DenseMapInfo@PEAVGlobalVariable@llvm@@X@2@U?$DenseMapPair@PEAVGlobalVariable@llvm@@I@detail@2@$0A@@llvm@@$$QEA_N@Z
	??$make_pair@V?$SmallPtrSetIterator@PEAUAnalysisKey@llvm@@@llvm@@AEA_N@std@@YA?AU?$pair@V?$SmallPtrSetIterator@PEAUAnalysisKey@llvm@@@llvm@@_N@0@$$QEAV?$SmallPtrSetIterator@PEAUAnalysisKey@llvm@@@llvm@@AEA_N@Z
	??$make_pair@V?$SmallPtrSetIterator@PEAX@llvm@@AEA_N@std@@YA?AU?$pair@V?$SmallPtrSetIterator@PEAX@llvm@@_N@0@$$QEAV?$SmallPtrSetIterator@PEAX@llvm@@AEA_N@Z
	??$make_range@V?$filter_iterator_impl@V?$ilist_iterator@U?$node_options@VGlobalVariable@llvm@@$00$0A@X$0A@X@ilist_detail@llvm@@$0A@$0A@@llvm@@P6A_NAEBVGlobalVariable@2@@_EUbidirectional_iterator_tag@std@@@llvm@@@llvm@@YA?AV?$iterator_range@V?$filter_iterator_impl@V?$ilist_iterator@U?$node_options@VGlobalVariable@llvm@@$00$0A@X$0A@X@ilist_detail@llvm@@$0A@$0A@@llvm@@P6A_NAEBVGlobalVariable@2@@_EUbidirectional_iterator_tag@std@@@llvm@@@0@V?$filter_iterator_impl@V?$ilist_iterator@U?$node_options@VGlobalVariable@llvm@@$00$0A@X$0A@X@ilist_detail@llvm@@$0A@$0A@@llvm@@P6A_NAEBVGlobalVariable@2@@_EUbidirectional_iterator_tag@std@@@0@0@Z
	??$make_range@V?$ilist_iterator@U?$node_options@VGlobalVariable@llvm@@$00$0A@X$0A@X@ilist_detail@llvm@@$0A@$0A@@llvm@@@llvm@@YA?AV?$iterator_range@V?$ilist_iterator@U?$node_options@VGlobalVariable@llvm@@$00$0A@X$0A@X@ilist_detail@llvm@@$0A@$0A@@llvm@@@0@V?$ilist_iterator@U?$node_options@VGlobalVariable@llvm@@$00$0A@X$0A@X@ilist_detail@llvm@@$0A@$0A@@0@0@Z
	??$make_range@V?$mapped_iterator@PEAU?$pair@PEAVGlobalVariable@llvm@@VStringRef@2@@std@@P6A?AU?$pair@PEAVGlobalVariable@llvm@@V?$basic_string@DU?$char_traits@D@std@@V?$allocator@D@2@@std@@@2@U12@@ZU32@@llvm@@@llvm@@YA?AV?$iterator_range@V?$mapped_iterator@PEAU?$pair@PEAVGlobalVariable@llvm@@VStringRef@2@@std@@P6A?AU?$pair@PEAVGlobalVariable@llvm@@V?$basic_string@DU?$char_traits@D@std@@V?$allocator@D@2@@std@@@2@U12@@ZU32@@llvm@@@0@V?$mapped_iterator@PEAU?$pair@PEAVGlobalVariable@llvm@@VStringRef@2@@std@@P6A?AU?$pair@PEAVGlobalVariable@llvm@@V?$basic_string@DU?$char_traits@D@std@@V?$allocator@D@2@@std@@@2@U12@@ZU32@@0@0@Z
	??$make_range@V?$user_iterator_impl@VUser@llvm@@@Value@llvm@@@llvm@@YA?AV?$iterator_range@V?$user_iterator_impl@VUser@llvm@@@Value@llvm@@@0@V?$user_iterator_impl@VUser@llvm@@@Value@0@0@Z
	??$make_unique@U?$AnalysisResultModel@VModule@llvm@@VPassInstrumentationAnalysis@2@VPassInstrumentation@2@VInvalidator@?$AnalysisManager@VModule@llvm@@$$V@2@$00@detail@llvm@@VPassInstrumentation@3@$0A@@std@@YA?AV?$unique_ptr@U?$AnalysisResultModel@VModule@llvm@@VPassInstrumentationAnalysis@2@VPassInstrumentation@2@VInvalidator@?$AnalysisManager@VModule@llvm@@$$V@2@$00@detail@llvm@@U?$default_delete@U?$AnalysisResultModel@VModule@llvm@@VPassInstrumentationAnalysis@2@VPassInstrumentation@2@VInvalidator@?$AnalysisManager@VModule@llvm@@$$V@2@$00@detail@llvm@@@std@@@0@$$QEAVPassInstrumentation@llvm@@@Z
	??$make_unique@U?$AnalysisResultModel@VModule@llvm@@VStringAnalyzer@jvs@@V?$MapVector@PEAVGlobalVariable@llvm@@VStringRef@2@V?$DenseMap@PEAVGlobalVariable@llvm@@IU?$DenseMapInfo@PEAVGlobalVariable@llvm@@X@2@U?$DenseMapPair@PEAVGlobalVariable@llvm@@I@detail@2@@2@V?$SmallVector@U?$pair@PEAVGlobalVariable@llvm@@VStringRef@2@@std@@$0A@@2@@2@VInvalidator@?$AnalysisManager@VModule@llvm@@$$V@2@$0A@@detail@llvm@@V?$MapVector@PEAVGlobalVariable@llvm@@VStringRef@2@V?$DenseMap@PEAVGlobalVariable@llvm@@IU?$DenseMapInfo@PEAVGlobalVariable@llvm@@X@2@U?$DenseMapPair@PEAVGlobalVariable@llvm@@I@detail@2@@2@V?$SmallVector@U?$pair@PEAVGlobalVariable@llvm@@VStringRef@2@@std@@$0A@@2@@3@$0A@@std@@YA?AV?$unique_ptr@U?$AnalysisResultModel@VModule@llvm@@VStringAnalyzer@jvs@@V?$MapVector@PEAVGlobalVariable@llvm@@VStringRef@2@V?$DenseMap@PEAVGlobalVariable@llvm@@IU?$DenseMapInfo@PEAVGlobalVariable@llvm@@X@2@U?$DenseMapPair@PEAVGlobalVariable@llvm@@I@detail@2@@2@V?$SmallVector@U?$pair@PEAVGlobalVariable@llvm@@VStringRef@2@@std@@$0A@@2@@2@VInvalidator@?$AnalysisManager@VModule@llvm@@$$V@2@$0A@@detail@llvm@@U?$default_delete@U?$AnalysisResultModel@VModule@llvm@@VStringAnalyzer@jvs@@V?$MapVector@PEAVGlobalVariable@llvm@@VStringRef@2@V?$DenseMap@PEAVGlobalVariable@llvm@@IU?$DenseMapInfo@PEAVGlobalVariable@llvm@@X@2@U?$DenseMapPair@PEAVGlobalVariable@llvm@@I@detail@2@@2@V?$SmallVector@U?$pair@PEAVGlobalVariable@llvm@@VStringRef@2@@std@@$0A@@2@@2@VInvalidator@?$AnalysisManager@VModule@llvm@@$$V@2@$0A@@detail@llvm@@@std@@@0@$$QEAV?$MapVector@PEAVGlobalVariable@llvm@@VStringRef@2@V?$DenseMap@PEAVGlobalVariable@llvm@@IU?$DenseMapInfo@PEAVGlobalVariable@llvm@@X@2@U?$DenseMapPair@PEAVGlobalVariable@llvm@@I@detail@2@@2@V?$SmallVector@U?$pair@PEAVGlobalVariable@llvm@@VStringRef@2@@std@@$0A@@2@@llvm@@@Z
	??$map_iterator@PEAU?$pair@PEAVGlobalVariable@llvm@@VStringRef@2@@std@@P6A?AU?$pair@PEAVGlobalVariable@llvm@@V?$basic_string@DU?$char_traits@D@std@@V?$allocator@D@2@@std@@@2@U12@@Z@llvm@@YA?AV?$mapped_iterator@PEAU?$pair@PEAVGlobalVariable@llvm@@VStringRef@2@@std@@P6A?AU?$pair@PEAVGlobalVariable@llvm@@V?$basic_string@DU?$char_traits@D@std@@V?$allocator@D@2@@std@@@2@U12@@ZU32@@0@PEAU?$pair@PEAVGlobalVariable@llvm@@VStringRef@2@@std@@P6A?AU?$pair@PEAVGlobalVariable@llvm@@V?$basic_string@DU?$char_traits@D@std@@V?$allocator@D@2@@std@@@3@U23@@Z@Z
	??$map_range@AEAV?$MapVector@PEAVGlobalVariable@llvm@@VStringRef@2@V?$DenseMap@PEAVGlobalVariable@llvm@@IU?$DenseMapInfo@PEAVGlobalVariable@llvm@@X@2@U?$DenseMapPair@PEAVGlobalVariable@llvm@@I@detail@2@@2@V?$SmallVector@U?$pair@PEAVGlobalVariable@llvm@@VStringRef@2@@std@@$0A@@2@@llvm@@P6A?AU?$pair@PEAVGlobalVariable@llvm@@V?$basic_string@DU?$char_traits@D@std@@V?$allocator@D@2@@std@@@std@@U?$pair@PEAVGlobalVariable@llvm@@VStringRef@2@@4@@Z@llvm@@YA?A_PAEAV?$MapVector@PEAVGlobalVariable@llvm@@VStringRef@2@V?$DenseMap@PEAVGlobalVariable@llvm@@IU?$DenseMapInfo@PEAVGlobalVariable@llvm@@X@2@U?$DenseMapPair@PEAVGlobalVariable@llvm@@I@detail@2@@2@V?$SmallVector@U?$pair@PEAVGlobalVariable@llvm@@VStringRef@2@@std@@$0A@@2@@0@P6A?AU?$pair@PEAVGlobalVariable@llvm@@V?$basic_string@DU?$char_traits@D@std@@V?$allocator@D@2@@std@@@std@@U?$pair@PEAVGlobalVariable@llvm@@VStringRef@2@@3@@Z@Z
	??$max@I@std@@YAAEBIAEBI0@Z
	??$max@_K@std@@YAAEB_KAEB_K0@Z
	??$min@_K@std@@YAAEB_KAEB_K0@Z
	??$move@PEAU?$pair@PEAVGlobalVariable@llvm@@VStringRef@2@@std@@PEAU12@@std@@YAPEAU?$pair@PEAVGlobalVariable@llvm@@VStringRef@2@@0@PEAU10@00@Z
	??$passIsRequiredImpl@VStringAnalyzerPrinter@jvs@@@?$PassModel@VModule@llvm@@VStringAnalyzerPrinter@jvs@@V?$AnalysisManager@VModule@llvm@@$$V@2@$$V@detail@llvm@@SA_NXZ
	??$passIsRequiredImpl@VStringReverser@jvs@@@?$PassModel@VModule@llvm@@VStringReverser@jvs@@V?$AnalysisManager@VModule@llvm@@$$V@2@$$V@detail@llvm@@SA_NXZ
	??$preserveSet@VCFGAnalyses@llvm@@@PreservedAnalyses@llvm@@QEAAAEAV01@XZ
	??$preservedSet@V?$AllAnalysesOn@VModule@llvm@@@llvm@@@PreservedAnalysisChecker@PreservedAnalyses@llvm@@QEAA_NXZ
	??$prev@PEAU?$pair@PEAVGlobalVariable@llvm@@VStringRef@2@@std@@@std@@YAPEAU?$pair@PEAVGlobalVariable@llvm@@VStringRef@2@@0@PEAU10@_J@Z
	??$remove_if@V<lambda_1>@?0??intersect@PreservedAnalyses@llvm@@QEAAX$$QEAV34@@Z@@?$SmallPtrSetImpl@PEAX@llvm@@QEAA_NV<lambda_1>@?0??intersect@PreservedAnalyses@1@QEAAX$$QEAV41@@Z@@Z
	??$reserveForParamAndGetAddressImpl@V?$SmallVectorTemplateBase@U?$pair@PEAVGlobalVariable@llvm@@VStringRef@2@@std@@$00@llvm@@@?$SmallVectorTemplateCommon@U?$pair@PEAVGlobalVariable@llvm@@VStringRef@2@@std@@X@llvm@@KAPEBU?$pair@PEAVGlobalVariable@llvm@@VStringRef@2@@std@@PEAV?$SmallVectorTemplateBase@U?$pair@PEAVGlobalVariable@llvm@@VStringRef@2@@std@@$00@1@AEBU23@_K@Z
	??$reserveForParamAndGetAddressImpl@V?$SmallVectorTemplateBase@V?$function@$$A6AXAEAV?$AnalysisManager@VModule@llvm@@$$V@llvm@@@Z@std@@$0A@@llvm@@@?$SmallVectorTemplateCommon@V?$function@$$A6AXAEAV?$AnalysisManager@VModule@llvm@@$$V@llvm@@@Z@std@@X@llvm@@KAPEBV?$function@$$A6AXAEAV?$AnalysisManager@VModule@llvm@@$$V@llvm@@@Z@std@@PEAV?$SmallVectorTemplateBase@V?$function@$$A6AXAEAV?$AnalysisManager@VModule@llvm@@$$V@llvm@@@Z@std@@$0A@@1@AEBV23@_K@Z
	??$reserveForParamAndGetAddressImpl@V?$SmallVectorTemplateBase@V?$function@$$A6A_NVStringRef@llvm@@AEAV?$PassManager@VModule@llvm@@V?$AnalysisManager@VModule@llvm@@$$V@2@$$V@2@V?$ArrayRef@UPipelineElement@PassBuilder@llvm@@@2@@Z@std@@$0A@@llvm@@@?$SmallVectorTemplateCommon@V?$function@$$A6A_NVStringRef@llvm@@AEAV?$PassManager@VModule@llvm@@V?$AnalysisManager@VModule@llvm@@$$V@2@$$V@2@V?$ArrayRef@UPipelineElement@PassBuilder@llvm@@@2@@Z@std@@X@llvm@@KAPEBV?$function@$$A6A_NVStringRef@llvm@@AEAV?$PassManager@VModule@llvm@@V?$AnalysisManager@VModule@llvm@@$$V@2@$$V@2@V?$ArrayRef@UPipelineElement@PassBuilder@llvm@@@2@@Z@std@@PEAV?$SmallVectorTemplateBase@V?$function@$$A6A_NVStringRef@llvm@@AEAV?$PassManager@VModule@llvm@@V?$AnalysisManager@VModule@llvm@@$$V@2@$$V@2@V?$ArrayRef@UPipelineElement@PassBuilder@llvm@@@2@@Z@std@@$0A@@1@AEBV23@_K@Z
	??$reverse@V?$_String_iterator@V?$_String_val@U?$_Simple_types@D@std@@@std@@@std@@@std@@YAXV?$_String_iterator@V?$_String_val@U?$_Simple_types@D@std@@@std@@@0@0@Z
	??$run@VModule@llvm@@V?$AnalysisManager@VModule@llvm@@$$V@2@$$V@PassInstrumentationAnalysis@llvm@@QEAA?AVPassInstrumentation@1@AEAVModule@1@AEAV?$AnalysisManager@VModule@llvm@@$$V@1@@Z
	??$shouldReverseIterate@PEAVGlobalVariable@llvm@@@llvm@@YA_NXZ
	??$shouldReverseIterate@PEAX@llvm@@YA_NXZ
	??$swap@I$0A@@std@@YAXAEAI0@Z
	??$swap@PEAU?$DenseMapPair@PEAVGlobalVariable@llvm@@I@detail@llvm@@$0A@@std@@YAXAEAPEAU?$DenseMapPair@PEAVGlobalVariable@llvm@@I@detail@llvm@@0@Z
	??$to_address@D@std@@YAPEADQEAD@Z
	??$to_vector@V?$iterator_range@V?$mapped_iterator@PEAU?$pair@PEAVGlobalVariable@llvm@@VStringRef@2@@std@@P6A?AU?$pair@PEAVGlobalVariable@llvm@@V?$basic_string@DU?$char_traits@D@std@@V?$allocator@D@2@@std@@@2@U12@@ZU32@@llvm@@@llvm@@@llvm@@YA?AV?$SmallVector@U?$pair@PEAVGlobalVariable@llvm@@V?$basic_string@DU?$char_traits@D@std@@V?$allocator@D@2@@std@@@std@@$00@0@$$QEAV?$iterator_range@V?$mapped_iterator@PEAU?$pair@PEAVGlobalVariable@llvm@@VStringRef@2@@std@@P6A?AU?$pair@PEAVGlobalVariable@llvm@@V?$basic_string@DU?$char_traits@D@std@@V?$allocator@D@2@@std@@@2@U12@@ZU32@@llvm@@@0@@Z
	??$try_emplace@I@?$DenseMapBase@V?$DenseMap@PEAVGlobalVariable@llvm@@IU?$DenseMapInfo@PEAVGlobalVariable@llvm@@X@2@U?$DenseMapPair@PEAVGlobalVariable@llvm@@I@detail@2@@llvm@@PEAVGlobalVariable@2@IU?$DenseMapInfo@PEAVGlobalVariable@llvm@@X@2@U?$DenseMapPair@PEAVGlobalVariable@llvm@@I@detail@2@@llvm@@QEAA?AU?$pair@V?$DenseMapIterator@PEAVGlobalVariable@llvm@@IU?$DenseMapInfo@PEAVGlobalVariable@llvm@@X@2@U?$DenseMapPair@PEAVGlobalVariable@llvm@@I@detail@2@$0A@@llvm@@_N@std@@$$QEAPEAVGlobalVariable@1@$$QEAI@Z
	??$try_emplace@VStringRef@llvm@@@?$MapVector@PEAVGlobalVariable@llvm@@VStringRef@2@V?$DenseMap@PEAVGlobalVariable@llvm@@IU?$DenseMapInfo@PEAVGlobalVariable@llvm@@X@2@U?$DenseMapPair@PEAVGlobalVariable@llvm@@I@detail@2@@2@V?$SmallVector@U?$pair@PEAVGlobalVariable@llvm@@VStringRef@2@@std@@$0A@@2@@llvm@@QEAA?AU?$pair@PEAU?$pair@PEAVGlobalVariable@llvm@@VStringRef@2@@std@@_N@std@@$$QEAPEAVGlobalVariable@1@$$QEAVStringRef@1@@Z
	??$uninitialized_copy@U?$pair@PEAVGlobalVariable@llvm@@VStringRef@2@@std@@U12@@?$SmallVectorTemplateBase@U?$pair@PEAVGlobalVariable@llvm@@VStringRef@2@@std@@$00@llvm@@KAXPEAU?$pair@PEAVGlobalVariable@llvm@@VStringRef@2@@std@@00PEAX@Z
	??$uninitialized_copy@V?$mapped_iterator@PEAU?$pair@PEAVGlobalVariable@llvm@@VStringRef@2@@std@@P6A?AU?$pair@PEAVGlobalVariable@llvm@@V?$basic_string@DU?$char_traits@D@std@@V?$allocator@D@2@@std@@@2@U12@@ZU32@@llvm@@PEAU?$pair@PEAVGlobalVariable@llvm@@V?$basic_string@DU?$char_traits@D@std@@V?$allocator@D@2@@std@@@std@@@?$SmallVectorTemplateBase@U?$pair@PEAVGlobalVariable@llvm@@V?$basic_string@DU?$char_traits@D@std@@V?$allocator@D@2@@std@@@std@@$0A@@llvm@@KAXV?$mapped_iterator@PEAU?$pair@PEAVGlobalVariable@llvm@@VStringRef@2@@std@@P6A?AU?$pair@PEAVGlobalVariable@llvm@@V?$basic_string@DU?$char_traits@D@std@@V?$allocator@D@2@@std@@@2@U12@@ZU32@@1@0PEAU?$pair@PEAVGlobalVariable@llvm@@V?$basic_string@DU?$char_traits@D@std@@V?$allocator@D@2@@std@@@std@@@Z
	??$uninitialized_copy@V?$mapped_iterator@PEAU?$pair@PEAVGlobalVariable@llvm@@VStringRef@2@@std@@P6A?AU?$pair@PEAVGlobalVariable@llvm@@V?$basic_string@DU?$char_traits@D@std@@V?$allocator@D@2@@std@@@2@U12@@ZU32@@llvm@@PEAU?$pair@PEAVGlobalVariable@llvm@@V?$basic_string@DU?$char_traits@D@std@@V?$allocator@D@2@@std@@@std@@@std@@YAPEAU?$pair@PEAVGlobalVariable@llvm@@V?$basic_string@DU?$char_traits@D@std@@V?$allocator@D@2@@std@@@0@V?$mapped_iterator@PEAU?$pair@PEAVGlobalVariable@llvm@@VStringRef@2@@std@@P6A?AU?$pair@PEAVGlobalVariable@llvm@@V?$basic_string@DU?$char_traits@D@std@@V?$allocator@D@2@@std@@@2@U12@@ZU32@@llvm@@0PEAU10@@Z
	??$uninitialized_move@PEAU?$pair@PEAVGlobalVariable@llvm@@V?$basic_string@DU?$char_traits@D@std@@V?$allocator@D@2@@std@@@std@@PEAU12@@?$SmallVectorTemplateBase@U?$pair@PEAVGlobalVariable@llvm@@V?$basic_string@DU?$char_traits@D@std@@V?$allocator@D@2@@std@@@std@@$0A@@llvm@@KAXPEAU?$pair@PEAVGlobalVariable@llvm@@V?$basic_string@DU?$char_traits@D@std@@V?$allocator@D@2@@std@@@std@@00@Z
	??$uninitialized_move@PEAU?$pair@PEAVGlobalVariable@llvm@@V?$basic_string@DU?$char_traits@D@std@@V?$allocator@D@2@@std@@@std@@PEAU12@@std@@YAPEAU?$pair@PEAVGlobalVariable@llvm@@V?$basic_string@DU?$char_traits@D@std@@V?$allocator@D@2@@std@@@0@QEAU10@0PEAU10@@Z
	??$uninitialized_move@PEAU?$pair@PEAVGlobalVariable@llvm@@VStringRef@2@@std@@PEAU12@@?$SmallVectorTemplateBase@U?$pair@PEAVGlobalVariable@llvm@@VStringRef@2@@std@@$00@llvm@@KAXPEAU?$pair@PEAVGlobalVariable@llvm@@VStringRef@2@@std@@00@Z
	??$uninitialized_move@PEAV?$function@$$A6AXAEAV?$AnalysisManager@VModule@llvm@@$$V@llvm@@@Z@std@@PEAV12@@?$SmallVectorTemplateBase@V?$function@$$A6AXAEAV?$AnalysisManager@VModule@llvm@@$$V@llvm@@@Z@std@@$0A@@llvm@@KAXPEAV?$function@$$A6AXAEAV?$AnalysisManager@VModule@llvm@@$$V@llvm@@@Z@std@@00@Z
	??$uninitialized_move@PEAV?$function@$$A6AXAEAV?$AnalysisManager@VModule@llvm@@$$V@llvm@@@Z@std@@PEAV12@@std@@YAPEAV?$function@$$A6AXAEAV?$AnalysisManager@VModule@llvm@@$$V@llvm@@@Z@0@QEAV10@0PEAV10@@Z
	??$uninitialized_move@PEAV?$function@$$A6A_NVStringRef@llvm@@AEAV?$PassManager@VModule@llvm@@V?$AnalysisManager@VModule@llvm@@$$V@2@$$V@2@V?$ArrayRef@UPipelineElement@PassBuilder@llvm@@@2@@Z@std@@PEAV12@@?$SmallVectorTemplateBase@V?$function@$$A6A_NVStringRef@llvm@@AEAV?$PassManager@VModule@llvm@@V?$AnalysisManager@VModule@llvm@@$$V@2@$$V@2@V?$ArrayRef@UPipelineElement@PassBuilder@llvm@@@2@@Z@std@@$0A@@llvm@@KAXPEAV?$function@$$A6A_NVStringRef@llvm@@AEAV?$PassManager@VModule@llvm@@V?$AnalysisManager@VModule@llvm@@$$V@2@$$V@2@V?$ArrayRef@UPipelineElement@PassBuilder@llvm@@@2@@Z@std@@00@Z
	??$uninitialized_move@PEAV?$function@$$A6A_NVStringRef@llvm@@AEAV?$PassManager@VModule@llvm@@V?$AnalysisManager@VModule@llvm@@$$V@2@$$V@2@V?$ArrayRef@UPipelineElement@PassBuilder@llvm@@@2@@Z@std@@PEAV12@@std@@YAPEAV?$function@$$A6A_NVStringRef@llvm@@AEAV?$PassManager@VModule@llvm@@V?$AnalysisManager@VModule@llvm@@$$V@2@$$V@2@V?$ArrayRef@UPipelineElement@PassBuilder@llvm@@@2@@Z@0@QEAV10@0PEAV10@@Z
	??0?$AnalysisPassConcept@VModule@llvm@@VInvalidator@?$AnalysisManager@VModule@llvm@@$$V@2@$$V@detail@llvm@@QEAA@XZ
	??0?$AnalysisPassModel@VModule@llvm@@VPassInstrumentationAnalysis@2@VInvalidator@?$AnalysisManager@VModule@llvm@@$$V@2@$$V@detail@llvm@@QEAA@VPassInstrumentationAnalysis@2@@Z
	??0?$AnalysisPassModel@VModule@llvm@@VStringAnalyzer@jvs@@VInvalidator@?$AnalysisManager@VModule@llvm@@$$V@2@$$V@detail@llvm@@QEAA@VStringAnalyzer@jvs@@@Z
	??0?$AnalysisResultConcept@VModule@llvm@@VInvalidator@?$AnalysisManager@VModule@llvm@@$$V@2@@detail@llvm@@QEAA@XZ
	??0?$AnalysisResultModel@VModule@llvm@@VPassInstrumentationAnalysis@2@VPassInstrumentation@2@VInvalidator@?$AnalysisManager@VModule@llvm@@$$V@2@$00@detail@llvm@@QEAA@VPassInstrumentation@2@@Z
	??0?$AnalysisResultModel@VModule@llvm@@VStringAnalyzer@jvs@@V?$MapVector@PEAVGlobalVariable@llvm@@VStringRef@2@V?$DenseMap@PEAVGlobalVariable@llvm@@IU?$DenseMapInfo@PEAVGlobalVariable@llvm@@X@2@U?$DenseMapPair@PEAVGlobalVariable@llvm@@I@detail@2@@2@V?$SmallVector@U?$pair@PEAVGlobalVariable@llvm@@VStringRef@2@@std@@$0A@@2@@2@VInvalidator@?$AnalysisManager@VModule@llvm@@$$V@2@$0A@@detail@llvm@@QEAA@V?$MapVector@PEAVGlobalVariable@llvm@@VStringRef@2@V?$DenseMap@PEAVGlobalVariable@llvm@@IU?$DenseMapInfo@PEAVGlobalVariable@llvm@@X@2@U?$DenseMapPair@PEAVGlobalVariable@llvm@@I@detail@2@@2@V?$SmallVector@U?$pair@PEAVGlobalVariable@llvm@@VStringRef@2@@std@@$0A@@2@@2@@Z
	??0?$DenseMap@PEAVGlobalVariable@llvm@@IU?$DenseMapInfo@PEAVGlobalVariable@llvm@@X@2@U?$DenseMapPair@PEAVGlobalVariable@llvm@@I@detail@2@@llvm@@QEAA@$$QEAV01@@Z
	??0?$DenseMap@PEAVGlobalVariable@llvm@@IU?$DenseMapInfo@PEAVGlobalVariable@llvm@@X@2@U?$DenseMapPair@PEAVGlobalVariable@llvm@@I@detail@2@@llvm@@QEAA@I@Z
	??0?$DenseMapBase@V?$DenseMap@PEAVGlobalVariable@llvm@@IU?$DenseMapInfo@PEAVGlobalVariable@llvm@@X@2@U?$DenseMapPair@PEAVGlobalVariable@llvm@@I@detail@2@@llvm@@PEAVGlobalVariable@2@IU?$DenseMapInfo@PEAVGlobalVariable@llvm@@X@2@U?$DenseMapPair@PEAVGlobalVariable@llvm@@I@detail@2@@llvm@@IEAA@XZ
	??0?$DenseMapIterator@PEAVGlobalVariable@llvm@@IU?$DenseMapInfo@PEAVGlobalVariable@llvm@@X@2@U?$DenseMapPair@PEAVGlobalVariable@llvm@@I@detail@2@$0A@@llvm@@QEAA@PEAU?$DenseMapPair@PEAVGlobalVariable@llvm@@I@detail@1@0AEBVDebugEpochBase@1@_N@Z
	??0?$MapVector@PEAVGlobalVariable@llvm@@VStringRef@2@V?$DenseMap@PEAVGlobalVariable@llvm@@IU?$DenseMapInfo@PEAVGlobalVariable@llvm@@X@2@U?$DenseMapPair@PEAVGlobalVariable@llvm@@I@detail@2@@2@V?$SmallVector@U?$pair@PEAVGlobalVariable@llvm@@VStringRef@2@@std@@$0A@@2@@llvm@@QEAA@$$QEAV01@@Z
	??0?$MapVector@PEAVGlobalVariable@llvm@@VStringRef@2@V?$DenseMap@PEAVGlobalVariable@llvm@@IU?$DenseMapInfo@PEAVGlobalVariable@llvm@@X@2@U?$DenseMapPair@PEAVGlobalVariable@llvm@@I@detail@2@@2@V?$SmallVector@U?$pair@PEAVGlobalVariable@llvm@@VStringRef@2@@std@@$0A@@2@@llvm@@QEAA@XZ
	??0?$PassConcept@VModule@llvm@@V?$AnalysisManager@VModule@llvm@@$$V@2@$$V@detail@llvm@@QEAA@XZ
	??0?$PassModel@VModule@llvm@@VStringAnalyzerPrinter@jvs@@V?$AnalysisManager@VModule@llvm@@$$V@2@$$V@detail@llvm@@QEAA@VStringAnalyzerPrinter@jvs@@@Z
	??0?$PassModel@VModule@llvm@@VStringReverser@jvs@@V?$AnalysisManager@VModule@llvm@@$$V@2@$$V@detail@llvm@@QEAA@VStringReverser@jvs@@@Z
	??0?$SmallPtrSet@PEAUAnalysisKey@llvm@@$01@llvm@@QEAA@XZ
	??0?$SmallPtrSet@PEAX$01@llvm@@QEAA@XZ
	??0?$SmallPtrSetIterator@PEAUAnalysisKey@llvm@@@llvm@@QEAA@PEBQEBX0AEBVDebugEpochBase@1@@Z
	??0?$SmallPtrSetIterator@PEAX@llvm@@QEAA@PEBQEBX0AEBVDebugEpochBase@1@@Z
	??0?$SmallVector@U?$pair@PEAVGlobalVariable@llvm@@VStringRef@2@@std@@$0A@@llvm@@QEAA@$$QEAV01@@Z
	??0?$SmallVector@U?$pair@PEAVGlobalVariable@llvm@@VStringRef@2@@std@@$0A@@llvm@@QEAA@XZ
	??0?$SmallVectorImpl@U?$pair@PEAVGlobalVariable@llvm@@V?$basic_string@DU?$char_traits@D@std@@V?$allocator@D@2@@std@@@std@@@llvm@@IEAA@I@Z
	??0?$SmallVectorImpl@U?$pair@PEAVGlobalVariable@llvm@@VStringRef@2@@std@@@llvm@@IEAA@I@Z
	??0?$SmallVectorTemplateBase@U?$pair@PEAVGlobalVariable@llvm@@V?$basic_string@DU?$char_traits@D@std@@V?$allocator@D@2@@std@@@std@@$0A@@llvm@@IEAA@_K@Z
	??0?$SmallVectorTemplateBase@U?$pair@PEAVGlobalVariable@llvm@@VStringRef@2@@std@@$00@llvm@@IEAA@_K@Z
	??0?$SmallVectorTemplateCommon@U?$pair@PEAVGlobalVariable@llvm@@V?$basic_string@DU?$char_traits@D@std@@V?$allocator@D@2@@std@@@std@@X@llvm@@IEAA@_K@Z
	??0?$SmallVectorTemplateCommon@U?$pair@PEAVGlobalVariable@llvm@@VStringRef@2@@std@@X@llvm@@IEAA@_K@Z
	??0?$_Func_base@XAEAV?$AnalysisManager@VModule@llvm@@$$V@llvm@@@std@@QEAA@XZ
	??0?$_Func_base@_NVStringRef@llvm@@AEAV?$PassManager@VModule@llvm@@V?$AnalysisManager@VModule@llvm@@$$V@2@$$V@2@V?$ArrayRef@UPipelineElement@PassBuilder@llvm@@@2@@std@@QEAA@XZ
	??0?$_Func_class@XAEAV?$AnalysisManager@VModule@llvm@@$$V@llvm@@@std@@QEAA@XZ
	??0?$_Func_class@_NVStringRef@llvm@@AEAV?$PassManager@VModule@llvm@@V?$AnalysisManager@VModule@llvm@@$$V@2@$$V@2@V?$ArrayRef@UPipelineElement@PassBuilder@llvm@@@2@@std@@QEAA@XZ
	??0?$_String_const_iterator@V?$_String_val@U?$_Simple_types@D@std@@@std@@@std@@QEAA@PEBDPEBU_Container_base0@1@@Z
	??0?$_String_val@U?$_Simple_types@D@std@@@std@@QEAA@XZ
	??0?$_Uninitialized_backout@PEAU?$pair@PEAVGlobalVariable@llvm@@V?$basic_string@DU?$char_traits@D@std@@V?$allocator@D@2@@std@@@std@@@std@@QEAA@PEAU?$pair@PEAVGlobalVariable@llvm@@V?$basic_string@DU?$char_traits@D@std@@V?$allocator@D@2@@std@@@1@@Z
	??0?$_Uninitialized_backout@PEAV?$function@$$A6AXAEAV?$AnalysisManager@VModule@llvm@@$$V@llvm@@@Z@std@@@std@@QEAA@PEAV?$function@$$A6AXAEAV?$AnalysisManager@VModule@llvm@@$$V@llvm@@@Z@1@@Z
	??0?$_Uninitialized_backout@PEAV?$function@$$A6A_NVStringRef@llvm@@AEAV?$PassManager@VModule@llvm@@V?$AnalysisManager@VModule@llvm@@$$V@2@$$V@2@V?$ArrayRef@UPipelineElement@PassBuilder@llvm@@@2@@Z@std@@@std@@QEAA@PEAV?$function@$$A6A_NVStringRef@llvm@@AEAV?$PassManager@VModule@llvm@@V?$AnalysisManager@VModule@llvm@@$$V@2@$$V@2@V?$ArrayRef@UPipelineElement@PassBuilder@llvm@@@2@@Z@1@@Z
	??0?$_Uninitialized_backout_al@V?$allocator@V?$unique_ptr@U?$PassConcept@VModule@llvm@@V?$AnalysisManager@VModule@llvm@@$$V@2@$$V@detail@llvm@@U?$default_delete@U?$PassConcept@VModule@llvm@@V?$AnalysisManager@VModule@llvm@@$$V@2@$$V@detail@llvm@@@std@@@std@@@std@@@std@@QEAA@PEAV?$unique_ptr@U?$PassConcept@VModule@llvm@@V?$AnalysisManager@VModule@llvm@@$$V@2@$$V@detail@llvm@@U?$default_delete@U?$PassConcept@VModule@llvm@@V?$AnalysisManager@VModule@llvm@@$$V@2@$$V@detail@llvm@@@std@@@1@AEAV?$allocator@V?$unique_ptr@U?$PassConcept@VModule@llvm@@V?$AnalysisManager@VModule@llvm@@$$V@2@$$V@detail@llvm@@U?$default_delete@U?$PassConcept@VModule@llvm@@V?$AnalysisManager@VModule@llvm@@$$V@2@$$V@detail@llvm@@@std@@@std@@@1@@Z
	??0?$allocator@D@std@@QEAA@XZ
	??0?$basic_string@DU?$char_traits@D@std@@V?$allocator@D@2@@std@@QEAA@$$QEAV01@@Z
	??0?$basic_string@DU?$char_traits@D@std@@V?$allocator@D@2@@std@@QEAA@AEBV01@@Z
	??0?$basic_string@DU?$char_traits@D@std@@V?$allocator@D@2@@std@@QEAA@QEBD_K@Z
	??0?$basic_string@DU?$char_traits@D@std@@V?$allocator@D@2@@std@@QEAA@XZ
	??0?$basic_string_view@DU?$char_traits@D@std@@@std@@QEAA@QEBD_K@Z
	??0?$filter_iterator_base@V?$ilist_iterator@U?$node_options@VGlobalVariable@llvm@@$00$0A@X$0A@X@ilist_detail@llvm@@$0A@$0A@@llvm@@P6A_NAEBVGlobalVariable@2@@_EUbidirectional_iterator_tag@std@@@llvm@@IEAA@V?$ilist_iterator@U?$node_options@VGlobalVariable@llvm@@$00$0A@X$0A@X@ilist_detail@llvm@@$0A@$0A@@1@0P6A_NAEBVGlobalVariable@1@@_E@Z
	??0?$filter_iterator_impl@V?$ilist_iterator@U?$node_options@VGlobalVariable@llvm@@$00$0A@X$0A@X@ilist_detail@llvm@@$0A@$0A@@llvm@@P6A_NAEBVGlobalVariable@2@@_EUbidirectional_iterator_tag@std@@@llvm@@QEAA@V?$ilist_iterator@U?$node_options@VGlobalVariable@llvm@@$00$0A@X$0A@X@ilist_detail@llvm@@$0A@$0A@@1@0P6A_NAEBVGlobalVariable@1@@_E@Z
	??0?$function@$$A6AXAEAV?$AnalysisManager@VModule@llvm@@$$V@llvm@@@Z@std@@QEAA@$$QEAV01@@Z
	??0?$function@$$A6AXAEAV?$AnalysisManager@VModule@llvm@@$$V@llvm@@@Z@std@@QEAA@AEBV01@@Z
	??0?$function@$$A6A_NVStringRef@llvm@@AEAV?$PassManager@VModule@llvm@@V?$AnalysisManager@VModule@llvm@@$$V@2@$$V@2@V?$ArrayRef@UPipelineElement@PassBuilder@llvm@@@2@@Z@std@@QEAA@$$QEAV01@@Z
	??0?$function@$$A6A_NVStringRef@llvm@@AEAV?$PassManager@VModule@llvm@@V?$AnalysisManager@VModule@llvm@@$$V@2@$$V@2@V?$ArrayRef@UPipelineElement@PassBuilder@llvm@@@2@@Z@std@@QEAA@AEBV01@@Z
	??0?$ilist_iterator@U?$node_options@VGlobalVariable@llvm@@$00$0A@X$0A@X@ilist_detail@llvm@@$0A@$0A@@llvm@@QEAA@AEAV?$ilist_node_impl@U?$node_options@VGlobalVariable@llvm@@$00$0A@X$0A@X@ilist_detail@llvm@@@1@@Z
	??0?$iterator_adaptor_base@V?$filter_iterator_base@V?$ilist_iterator@U?$node_options@VGlobalVariable@llvm@@$00$0A@X$0A@X@ilist_detail@llvm@@$0A@$0A@@llvm@@P6A_NAEBVGlobalVariable@2@@_EUbidirectional_iterator_tag@std@@@llvm@@V?$ilist_iterator@U?$node_options@VGlobalVariable@llvm@@$00$0A@X$0A@X@ilist_detail@llvm@@$0A@$0A@@2@Ubidirectional_iterator_tag@std@@VGlobalVariable@2@_JPEAV62@AEAV62@@llvm@@IEAA@V?$ilist_iterator@U?$node_options@VGlobalVariable@llvm@@$00$0A@X$0A@X@ilist_detail@llvm@@$0A@$0A@@1@@Z
	??0?$iterator_adaptor_base@V?$mapped_iterator@PEAU?$pair@PEAVGlobalVariable@llvm@@VStringRef@2@@std@@P6A?AU?$pair@PEAVGlobalVariable@llvm@@V?$basic_string@DU?$char_traits@D@std@@V?$allocator@D@2@@std@@@2@U12@@ZU32@@llvm@@PEAU?$pair@PEAVGlobalVariable@llvm@@VStringRef@2@@std@@Urandom_access_iterator_tag@4@U?$pair@PEAVGlobalVariable@llvm@@V?$basic_string@DU?$char_traits@D@std@@V?$allocator@D@2@@std@@@4@_JPEAU64@U64@@llvm@@IEAA@PEAU?$pair@PEAVGlobalVariable@llvm@@VStringRef@2@@std@@@Z
	??0?$iterator_range@V?$filter_iterator_impl@V?$ilist_iterator@U?$node_options@VGlobalVariable@llvm@@$00$0A@X$0A@X@ilist_detail@llvm@@$0A@$0A@@llvm@@P6A_NAEBVGlobalVariable@2@@_EUbidirectional_iterator_tag@std@@@llvm@@@llvm@@QEAA@V?$filter_iterator_impl@V?$ilist_iterator@U?$node_options@VGlobalVariable@llvm@@$00$0A@X$0A@X@ilist_detail@llvm@@$0A@$0A@@llvm@@P6A_NAEBVGlobalVariable@2@@_EUbidirectional_iterator_tag@std@@@1@0@Z
	??0?$iterator_range@V?$ilist_iterator@U?$node_options@VGlobalVariable@llvm@@$00$0A@X$0A@X@ilist_detail@llvm@@$0A@$0A@@llvm@@@llvm@@QEAA@V?$ilist_iterator@U?$node_options@VGlobalVariable@llvm@@$00$0A@X$0A@X@ilist_detail@llvm@@$0A@$0A@@1@0@Z
	??0?$iterator_range@V?$mapped_iterator@PEAU?$pair@PEAVGlobalVariable@llvm@@VStringRef@2@@std@@P6A?AU?$pair@PEAVGlobalVariable@llvm@@V?$basic_string@DU?$char_traits@D@std@@V?$allocator@D@2@@std@@@2@U12@@ZU32@@llvm@@@llvm@@QEAA@V?$mapped_iterator@PEAU?$pair@PEAVGlobalVariable@llvm@@VStringRef@2@@std@@P6A?AU?$pair@PEAVGlobalVariable@llvm@@V?$basic_string@DU?$char_traits@D@std@@V?$allocator@D@2@@std@@@2@U12@@ZU32@@1@0@Z
	??0?$iterator_range@V?$user_iterator_impl@VUser@llvm@@@Value@llvm@@@llvm@@QEAA@V?$user_iterator_impl@VUser@llvm@@@Value@1@0@Z
	??0?$mapped_iterator@PEAU?$pair@PEAVGlobalVariable@llvm@@VStringRef@2@@std@@P6A?AU?$pair@PEAVGlobalVariable@llvm@@V?$basic_string@DU?$char_traits@D@std@@V?$allocator@D@2@@std@@@2@U12@@ZU32@@llvm@@QEAA@PEAU?$pair@PEAVGlobalVariable@llvm@@VStringRef@2@@std@@P6A?AU?$pair@PEAVGlobalVariable@llvm@@V?$basic_string@DU?$char_traits@D@std@@V?$allocator@D@2@@std@@@3@U23@@Z@Z
	??0?$pair@PEAVGlobalVariable@llvm@@V?$basic_string@DU?$char_traits@D@std@@V?$allocator@D@2@@std@@@std@@QEAA@$$QEAU01@@Z
	??0?$tuple@$$QEAPEAVGlobalVariable@llvm@@@std@@QEAA@$$QEAV01@@Z
	??0?$tuple@$$QEAVStringRef@llvm@@@std@@QEAA@$$QEAV01@@Z
	??0?$tuple@$$V@std@@QEAA@AEBV01@@Z
	??0?$use_iterator_impl@VUse@llvm@@@Value@llvm@@AEAA@PEAVUse@2@@Z
	??0?$use_iterator_impl@VUse@llvm@@@Value@llvm@@QEAA@XZ
	??0?$user_iterator_impl@VUser@llvm@@@Value@llvm@@AEAA@PEAVUse@2@@Z
	??0?$user_iterator_impl@VUser@llvm@@@Value@llvm@@QEAA@XZ
	??0DebugEpochBase@llvm@@QEAA@XZ
	??0HandleBase@DebugEpochBase@llvm@@QEAA@PEBV12@@Z
	??0PassInstrumentation@llvm@@QEAA@PEAVPassInstrumentationCallbacks@1@@Z
	??0PassInstrumentationAnalysis@llvm@@QEAA@PEAVPassInstrumentationCallbacks@1@@Z
	??0PreservedAnalyses@llvm@@QEAA@XZ
	??0PreservedAnalysisChecker@PreservedAnalyses@llvm@@AEAA@AEBV12@PEAUAnalysisKey@2@@Z
	??0SmallPtrSetImplBase@llvm@@IEAA@PEAPEBXI@Z
	??0SmallPtrSetIteratorImpl@llvm@@QEAA@PEBQEBX0@Z
	??0StringAnalyzerPrinter@jvs@@QEAA@AEAVraw_ostream@llvm@@@Z
	??0StringRef@llvm@@QEAA@AEBV?$basic_string@DU?$char_traits@D@std@@V?$allocator@D@2@@std@@@Z
	??0StringRef@llvm@@QEAA@PEBD@Z
	??0StringRef@llvm@@QEAA@PEBD_K@Z
	??0StringRef@llvm@@QEAA@V?$basic_string_view@DU?$char_traits@D@std@@@std@@@Z
	??0_Bxty@?$_String_val@U?$_Simple_types@D@std@@@std@@QEAA@XZ
	??0_Fake_proxy_ptr_impl@std@@QEAA@AEBU_Fake_allocator@1@AEBU_Container_base0@1@@Z
	??0bad_alloc@std@@AEAA@QEBD@Z
	??0bad_alloc@std@@QEAA@AEBV01@@Z
	??0bad_array_new_length@std@@QEAA@AEBV01@@Z
	??0bad_array_new_length@std@@QEAA@XZ
	??0exception@std@@QEAA@AEBV01@@Z
	??0exception@std@@QEAA@QEBDH@Z
	??0raw_ostream@llvm@@QEAA@_NW4OStreamKind@01@@Z
	??0raw_string_ostream@llvm@@QEAA@AEAV?$basic_string@DU?$char_traits@D@std@@V?$allocator@D@2@@std@@@Z
	??1?$AnalysisPassConcept@VModule@llvm@@VInvalidator@?$AnalysisManager@VModule@llvm@@$$V@2@$$V@detail@llvm@@UEAA@XZ
	??1?$AnalysisPassModel@VModule@llvm@@VPassInstrumentationAnalysis@2@VInvalidator@?$AnalysisManager@VModule@llvm@@$$V@2@$$V@detail@llvm@@UEAA@XZ
	??1?$AnalysisPassModel@VModule@llvm@@VStringAnalyzer@jvs@@VInvalidator@?$AnalysisManager@VModule@llvm@@$$V@2@$$V@detail@llvm@@UEAA@XZ
	??1?$AnalysisResultConcept@VModule@llvm@@VInvalidator@?$AnalysisManager@VModule@llvm@@$$V@2@@detail@llvm@@UEAA@XZ
	??1?$AnalysisResultModel@VModule@llvm@@VPassInstrumentationAnalysis@2@VPassInstrumentation@2@VInvalidator@?$AnalysisManager@VModule@llvm@@$$V@2@$00@detail@llvm@@UEAA@XZ
	??1?$AnalysisResultModel@VModule@llvm@@VStringAnalyzer@jvs@@V?$MapVector@PEAVGlobalVariable@llvm@@VStringRef@2@V?$DenseMap@PEAVGlobalVariable@llvm@@IU?$DenseMapInfo@PEAVGlobalVariable@llvm@@X@2@U?$DenseMapPair@PEAVGlobalVariable@llvm@@I@detail@2@@2@V?$SmallVector@U?$pair@PEAVGlobalVariable@llvm@@VStringRef@2@@std@@$0A@@2@@2@VInvalidator@?$AnalysisManager@VModule@llvm@@$$V@2@$0A@@detail@llvm@@UEAA@XZ
	??1?$DenseMap@PEAVGlobalVariable@llvm@@IU?$DenseMapInfo@PEAVGlobalVariable@llvm@@X@2@U?$DenseMapPair@PEAVGlobalVariable@llvm@@I@detail@2@@llvm@@QEAA@XZ
	??1?$DenseMapBase@V?$DenseMap@PEAVGlobalVariable@llvm@@IU?$DenseMapInfo@PEAVGlobalVariable@llvm@@X@2@U?$DenseMapPair@PEAVGlobalVariable@llvm@@I@detail@2@@llvm@@PEAVGlobalVariable@2@IU?$DenseMapInfo@PEAVGlobalVariable@llvm@@X@2@U?$DenseMapPair@PEAVGlobalVariable@llvm@@I@detail@2@@llvm@@QEAA@XZ
	??1?$MapVector@PEAVGlobalVariable@llvm@@VStringRef@2@V?$DenseMap@PEAVGlobalVariable@llvm@@IU?$DenseMapInfo@PEAVGlobalVariable@llvm@@X@2@U?$DenseMapPair@PEAVGlobalVariable@llvm@@I@detail@2@@2@V?$SmallVector@U?$pair@PEAVGlobalVariable@llvm@@VStringRef@2@@std@@$0A@@2@@llvm@@QEAA@XZ
	??1?$PassConcept@VModule@llvm@@V?$AnalysisManager@VModule@llvm@@$$V@2@$$V@detail@llvm@@UEAA@XZ
	??1?$PassModel@VModule@llvm@@VStringAnalyzerPrinter@jvs@@V?$AnalysisManager@VModule@llvm@@$$V@2@$$V@detail@llvm@@UEAA@XZ
	??1?$PassModel@VModule@llvm@@VStringReverser@jvs@@V?$AnalysisManager@VModule@llvm@@$$V@2@$$V@detail@llvm@@UEAA@XZ
	??1?$SmallPtrSet@PEAUAnalysisKey@llvm@@$01@llvm@@QEAA@XZ
	??1?$SmallPtrSet@PEAX$01@llvm@@QEAA@XZ
	??1?$SmallPtrSetImpl@PEAUAnalysisKey@llvm@@@llvm@@QEAA@XZ
	??1?$SmallPtrSetImpl@PEAX@llvm@@QEAA@XZ
	??1?$SmallVector@U?$pair@PEAVGlobalVariable@llvm@@V?$basic_string@DU?$char_traits@D@std@@V?$allocator@D@2@@std@@@std@@$00@llvm@@QEAA@XZ
	??1?$SmallVector@U?$pair@PEAVGlobalVariable@llvm@@VStringRef@2@@std@@$0A@@llvm@@QEAA@XZ
	??1?$SmallVectorImpl@U?$pair@PEAVGlobalVariable@llvm@@V?$basic_string@DU?$char_traits@D@std@@V?$allocator@D@2@@std@@@std@@@llvm@@IEAA@XZ
	??1?$SmallVectorImpl@U?$pair@PEAVGlobalVariable@llvm@@VStringRef@2@@std@@@llvm@@IEAA@XZ
	??1?$_Compressed_pair@V?$allocator@D@std@@V?$_String_val@U?$_Simple_types@D@std@@@2@$00@std@@QEAA@XZ
	??1?$_Func_class@XAEAV?$AnalysisManager@VModule@llvm@@$$V@llvm@@@std@@QEAA@XZ
	??1?$_Func_class@_NVStringRef@llvm@@AEAV?$PassManager@VModule@llvm@@V?$AnalysisManager@VModule@llvm@@$$V@2@$$V@2@V?$ArrayRef@UPipelineElement@PassBuilder@llvm@@@2@@std@@QEAA@XZ
	??1?$_String_val@U?$_Simple_types@D@std@@@std@@QEAA@XZ
	??1?$_Uninitialized_backout@PEAU?$pair@PEAVGlobalVariable@llvm@@V?$basic_string@DU?$char_traits@D@std@@V?$allocator@D@2@@std@@@std@@@std@@QEAA@XZ
	??1?$_Uninitialized_backout@PEAV?$function@$$A6AXAEAV?$AnalysisManager@VModule@llvm@@$$V@llvm@@@Z@std@@@std@@QEAA@XZ
	??1?$_Uninitialized_backout@PEAV?$function@$$A6A_NVStringRef@llvm@@AEAV?$PassManager@VModule@llvm@@V?$AnalysisManager@VModule@llvm@@$$V@2@$$V@2@V?$ArrayRef@UPipelineElement@PassBuilder@llvm@@@2@@Z@std@@@std@@QEAA@XZ
	??1?$_Uninitialized_backout_al@V?$allocator@V?$unique_ptr@U?$PassConcept@VModule@llvm@@V?$AnalysisManager@VModule@llvm@@$$V@2@$$V@detail@llvm@@U?$default_delete@U?$PassConcept@VModule@llvm@@V?$AnalysisManager@VModule@llvm@@$$V@2@$$V@detail@llvm@@@std@@@std@@@std@@@std@@QEAA@XZ
	??1?$basic_string@DU?$char_traits@D@std@@V?$allocator@D@2@@std@@QEAA@XZ
	??1?$function@$$A6AXAEAV?$AnalysisManager@VModule@llvm@@$$V@llvm@@@Z@std@@QEAA@XZ
	??1?$function@$$A6A_NVStringRef@llvm@@AEAV?$PassManager@VModule@llvm@@V?$AnalysisManager@VModule@llvm@@$$V@2@$$V@2@V?$ArrayRef@UPipelineElement@PassBuilder@llvm@@@2@@Z@std@@QEAA@XZ
	??1?$pair@PEAVGlobalVariable@llvm@@V?$basic_string@DU?$char_traits@D@std@@V?$allocator@D@2@@std@@@std@@QEAA@XZ
	??1?$unique_ptr@U?$AnalysisPassConcept@VModule@llvm@@VInvalidator@?$AnalysisManager@VModule@llvm@@$$V@2@$$V@detail@llvm@@U?$default_delete@U?$AnalysisPassConcept@VModule@llvm@@VInvalidator@?$AnalysisManager@VModule@llvm@@$$V@2@$$V@detail@llvm@@@std@@@std@@QEAA@XZ
	??1?$unique_ptr@U?$AnalysisResultModel@VModule@llvm@@VPassInstrumentationAnalysis@2@VPassInstrumentation@2@VInvalidator@?$AnalysisManager@VModule@llvm@@$$V@2@$00@detail@llvm@@U?$default_delete@U?$AnalysisResultModel@VModule@llvm@@VPassInstrumentationAnalysis@2@VPassInstrumentation@2@VInvalidator@?$AnalysisManager@VModule@llvm@@$$V@2@$00@detail@llvm@@@std@@@std@@QEAA@XZ
	??1?$unique_ptr@U?$AnalysisResultModel@VModule@llvm@@VStringAnalyzer@jvs@@V?$MapVector@PEAVGlobalVariable@llvm@@VStringRef@2@V?$DenseMap@PEAVGlobalVariable@llvm@@IU?$DenseMapInfo@PEAVGlobalVariable@llvm@@X@2@U?$DenseMapPair@PEAVGlobalVariable@llvm@@I@detail@2@@2@V?$SmallVector@U?$pair@PEAVGlobalVariable@llvm@@VStringRef@2@@std@@$0A@@2@@2@VInvalidator@?$AnalysisManager@VModule@llvm@@$$V@2@$0A@@detail@llvm@@U?$default_delete@U?$AnalysisResultModel@VModule@llvm@@VStringAnalyzer@jvs@@V?$MapVector@PEAVGlobalVariable@llvm@@VStringRef@2@V?$DenseMap@PEAVGlobalVariable@llvm@@IU?$DenseMapInfo@PEAVGlobalVariable@llvm@@X@2@U?$DenseMapPair@PEAVGlobalVariable@llvm@@I@detail@2@@2@V?$SmallVector@U?$pair@PEAVGlobalVariable@llvm@@VStringRef@2@@std@@$0A@@2@@2@VInvalidator@?$AnalysisManager@VModule@llvm@@$$V@2@$0A@@detail@llvm@@@std@@@std@@QEAA@XZ
	??1?$unique_ptr@U?$PassConcept@VModule@llvm@@V?$AnalysisManager@VModule@llvm@@$$V@2@$$V@detail@llvm@@U?$default_delete@U?$PassConcept@VModule@llvm@@V?$AnalysisManager@VModule@llvm@@$$V@2@$$V@detail@llvm@@@std@@@std@@QEAA@XZ
	??1DebugEpochBase@llvm@@QEAA@XZ
	??1PreservedAnalyses@llvm@@QEAA@XZ
	??1SmallPtrSetImplBase@llvm@@IEAA@XZ
	??1_Bxty@?$_String_val@U?$_Simple_types@D@std@@@std@@QEAA@XZ
	??1_Reallocation_guard@?$vector@V?$unique_ptr@U?$PassConcept@VModule@llvm@@V?$AnalysisManager@VModule@llvm@@$$V@2@$$V@detail@llvm@@U?$default_delete@U?$PassConcept@VModule@llvm@@V?$AnalysisManager@VModule@llvm@@$$V@2@$$V@detail@llvm@@@std@@@std@@V?$allocator@V?$unique_ptr@U?$PassConcept@VModule@llvm@@V?$AnalysisManager@VModule@llvm@@$$V@2@$$V@detail@llvm@@U?$default_delete@U?$PassConcept@VModule@llvm@@V?$AnalysisManager@VModule@llvm@@$$V@2@$$V@detail@llvm@@@std@@@std@@@2@@std@@QEAA@XZ
	??1bad_alloc@std@@UEAA@XZ
	??1bad_array_new_length@std@@UEAA@XZ
	??1exception@std@@UEAA@XZ
	??1raw_string_ostream@llvm@@UEAA@XZ
	??4?$SmallPtrSet@PEAUAnalysisKey@llvm@@$01@llvm@@QEAAAEAV01@$$QEAV01@@Z
	??4?$SmallPtrSet@PEAX$01@llvm@@QEAAAEAV01@$$QEAV01@@Z
	??4?$SmallVectorImpl@U?$pair@PEAVGlobalVariable@llvm@@VStringRef@2@@std@@@llvm@@QEAAAEAV01@$$QEAV01@@Z
	??4PreservedAnalyses@llvm@@QEAAAEAV01@$$QEAV01@@Z
	??4TrackingStatistic@llvm@@QEAAAEBV01@_K@Z
	??6raw_ostream@llvm@@QEAAAEAV01@AEBV?$basic_string@DU?$char_traits@D@std@@V?$allocator@D@2@@std@@@Z
	??6raw_ostream@llvm@@QEAAAEAV01@PEBD@Z
	??6raw_ostream@llvm@@QEAAAEAV01@VStringRef@1@@Z
	??8?$use_iterator_impl@VUse@llvm@@@Value@llvm@@QEBA_NAEBV012@@Z
	??8?$user_iterator_impl@VUser@llvm@@@Value@llvm@@QEBA_NAEBV012@@Z
	??8llvm@@YA_NAEBV?$ilist_iterator@U?$node_options@VGlobalVariable@llvm@@$00$0A@X$0A@X@ilist_detail@llvm@@$0A@$0A@@0@0@Z
	??8llvm@@YA_NAEBV?$iterator_adaptor_base@V?$filter_iterator_base@V?$ilist_iterator@U?$node_options@VGlobalVariable@llvm@@$00$0A@X$0A@X@ilist_detail@llvm@@$0A@$0A@@llvm@@P6A_NAEBVGlobalVariable@2@@_EUbidirectional_iterator_tag@std@@@llvm@@V?$ilist_iterator@U?$node_options@VGlobalVariable@llvm@@$00$0A@X$0A@X@ilist_detail@llvm@@$0A@$0A@@2@Ubidirectional_iterator_tag@std@@VGlobalVariable@2@_JPEAV62@AEAV62@@0@0@Z
	??8llvm@@YA_NAEBV?$iterator_adaptor_base@V?$mapped_iterator@PEAU?$pair@PEAVGlobalVariable@llvm@@VStringRef@2@@std@@P6A?AU?$pair@PEAVGlobalVariable@llvm@@V?$basic_string@DU?$char_traits@D@std@@V?$allocator@D@2@@std@@@2@U12@@ZU32@@llvm@@PEAU?$pair@PEAVGlobalVariable@llvm@@VStringRef@2@@std@@Urandom_access_iterator_tag@4@U?$pair@PEAVGlobalVariable@llvm@@V?$basic_string@DU?$char_traits@D@std@@V?$allocator@D@2@@std@@@4@_JPEAU64@U64@@0@0@Z
	??8llvm@@YA_NVStringRef@0@0@Z
	??9SmallPtrSetIteratorImpl@llvm@@QEBA_NAEBV01@@Z
	??9llvm@@YA_NAEBV?$ilist_iterator@U?$node_options@VGlobalVariable@llvm@@$00$0A@X$0A@X@ilist_detail@llvm@@$0A@$0A@@0@0@Z
	??A?$DenseMapBase@V?$DenseMap@PEAUAnalysisKey@llvm@@V?$unique_ptr@U?$AnalysisPassConcept@VModule@llvm@@VInvalidator@?$AnalysisManager@VModule@llvm@@$$V@2@$$V@detail@llvm@@U?$default_delete@U?$AnalysisPassConcept@VModule@llvm@@VInvalidator@?$AnalysisManager@VModule@llvm@@$$V@2@$$V@detail@llvm@@@std@@@std@@U?$DenseMapInfo@PEAUAnalysisKey@llvm@@X@2@U?$DenseMapPair@PEAUAnalysisKey@llvm@@V?$unique_ptr@U?$AnalysisPassConcept@VModule@llvm@@VInvalidator@?$AnalysisManager@VModule@llvm@@$$V@2@$$V@detail@llvm@@U?$default_delete@U?$AnalysisPassConcept@VModule@llvm@@VInvalidator@?$AnalysisManager@VModule@llvm@@$$V@2@$$V@detail@llvm@@@std@@@std@@@detail@2@@llvm@@PEAUAnalysisKey@2@V?$unique_ptr@U?$AnalysisPassConcept@VModule@llvm@@VInvalidator@?$AnalysisManager@VModule@llvm@@$$V@2@$$V@detail@llvm@@U?$default_delete@U?$AnalysisPassConcept@VModule@llvm@@VInvalidator@?$AnalysisManager@VModule@llvm@@$$V@2@$$V@detail@llvm@@@std@@@std@@U?$DenseMapInfo@PEAUAnalysisKey@llvm@@X@2@U?$DenseMapPair@PEAUAnalysisKey@llvm@@V?$unique_ptr@U?$AnalysisPassConcept@VModule@llvm@@VInvalidator@?$AnalysisManager@VModule@llvm@@$$V@2@$$V@detail@llvm@@U?$default_delete@U?$AnalysisPassConcept@VModule@llvm@@VInvalidator@?$AnalysisManager@VModule@llvm@@$$V@2@$$V@detail@llvm@@@std@@@std@@@detail@2@@llvm@@QEAAAEAV?$unique_ptr@U?$AnalysisPassConcept@VModule@llvm@@VInvalidator@?$AnalysisManager@VModule@llvm@@$$V@2@$$V@detail@llvm@@U?$default_delete@U?$AnalysisPassConcept@VModule@llvm@@VInvalidator@?$AnalysisManager@VModule@llvm@@$$V@2@$$V@detail@llvm@@@std@@@std@@$$QEAPEAUAnalysisKey@1@@Z
	??B?$PunnedPointer@PEAV?$ilist_node_base@$00X@llvm@@@detail@llvm@@QEBA_JXZ
	??B?$unique_ptr@U?$AnalysisPassConcept@VModule@llvm@@VInvalidator@?$AnalysisManager@VModule@llvm@@$$V@2@$$V@detail@llvm@@U?$default_delete@U?$AnalysisPassConcept@VModule@llvm@@VInvalidator@?$AnalysisManager@VModule@llvm@@$$V@2@$$V@detail@llvm@@@std@@@std@@QEBA_NXZ
	??C?$DenseMapIterator@PEAVGlobalVariable@llvm@@IU?$DenseMapInfo@PEAVGlobalVariable@llvm@@X@2@U?$DenseMapPair@PEAVGlobalVariable@llvm@@I@detail@2@$0A@@llvm@@QEBAPEAU?$DenseMapPair@PEAVGlobalVariable@llvm@@I@detail@1@XZ
	??C?$use_iterator_impl@VUse@llvm@@@Value@llvm@@QEBAPEAVUse@2@XZ
	??D?$SmallPtrSetIterator@PEAUAnalysisKey@llvm@@@llvm@@QEBAQEAUAnalysisKey@1@XZ
	??D?$filter_iterator_base@V?$ilist_iterator@U?$node_options@VGlobalVariable@llvm@@$00$0A@X$0A@X@ilist_detail@llvm@@$0A@$0A@@llvm@@P6A_NAEBVGlobalVariable@2@@_EUbidirectional_iterator_tag@std@@@llvm@@QEBA@XZ
	??D?$ilist_iterator@U?$node_options@VGlobalVariable@llvm@@$00$0A@X$0A@X@ilist_detail@llvm@@$0A@$0A@@llvm@@QEBAAEAVGlobalVariable@1@XZ
	??D?$iterator_adaptor_base@V?$filter_iterator_base@V?$ilist_iterator@U?$node_options@VGlobalVariable@llvm@@$00$0A@X$0A@X@ilist_detail@llvm@@$0A@$0A@@llvm@@P6A_NAEBVGlobalVariable@2@@_EUbidirectional_iterator_tag@std@@@llvm@@V?$ilist_iterator@U?$node_options@VGlobalVariable@llvm@@$00$0A@X$0A@X@ilist_detail@llvm@@$0A@$0A@@2@Ubidirectional_iterator_tag@std@@VGlobalVariable@2@_JPEAV62@AEAV62@@llvm@@QEBAAEAVGlobalVariable@1@XZ
	??D?$mapped_iterator@PEAU?$pair@PEAVGlobalVariable@llvm@@VStringRef@2@@std@@P6A?AU?$pair@PEAVGlobalVariable@llvm@@V?$basic_string@DU?$char_traits@D@std@@V?$allocator@D@2@@std@@@2@U12@@ZU32@@llvm@@QEBA?AU?$pair@PEAVGlobalVariable@llvm@@V?$basic_string@DU?$char_traits@D@std@@V?$allocator@D@2@@std@@@std@@XZ
	??D?$use_iterator_impl@VUse@llvm@@@Value@llvm@@QEBAAEAVUse@2@XZ
	??D?$user_iterator_impl@VUser@llvm@@@Value@llvm@@QEBAPEAVUser@2@XZ
	??E?$SmallPtrSetIterator@PEAUAnalysisKey@llvm@@@llvm@@QEAAAEAV01@XZ
	??E?$filter_iterator_base@V?$ilist_iterator@U?$node_options@VGlobalVariable@llvm@@$00$0A@X$0A@X@ilist_detail@llvm@@$0A@$0A@@llvm@@P6A_NAEBVGlobalVariable@2@@_EUbidirectional_iterator_tag@std@@@llvm@@QEAAAEAV01@XZ
	??E?$ilist_iterator@U?$node_options@VGlobalVariable@llvm@@$00$0A@X$0A@X@ilist_detail@llvm@@$0A@$0A@@llvm@@QEAAAEAV01@XZ
	??E?$iterator_adaptor_base@V?$filter_iterator_base@V?$ilist_iterator@U?$node_options@VGlobalVariable@llvm@@$00$0A@X$0A@X@ilist_detail@llvm@@$0A@$0A@@llvm@@P6A_NAEBVGlobalVariable@2@@_EUbidirectional_iterator_tag@std@@@llvm@@V?$ilist_iterator@U?$node_options@VGlobalVariable@llvm@@$00$0A@X$0A@X@ilist_detail@llvm@@$0A@$0A@@2@Ubidirectional_iterator_tag@std@@VGlobalVariable@2@_JPEAV62@AEAV62@@llvm@@QEAAAEAV?$filter_iterator_base@V?$ilist_iterator@U?$node_options@VGlobalVariable@llvm@@$00$0A@X$0A@X@ilist_detail@llvm@@$0A@$0A@@llvm@@P6A_NAEBVGlobalVariable@2@@_EUbidirectional_iterator_tag@std@@@1@XZ
	??E?$iterator_adaptor_base@V?$mapped_iterator@PEAU?$pair@PEAVGlobalVariable@llvm@@VStringRef@2@@std@@P6A?AU?$pair@PEAVGlobalVariable@llvm@@V?$basic_string@DU?$char_traits@D@std@@V?$allocator@D@2@@std@@@2@U12@@ZU32@@llvm@@PEAU?$pair@PEAVGlobalVariable@llvm@@VStringRef@2@@std@@Urandom_access_iterator_tag@4@U?$pair@PEAVGlobalVariable@llvm@@V?$basic_string@DU?$char_traits@D@std@@V?$allocator@D@2@@std@@@4@_JPEAU64@U64@@llvm@@QEAAAEAV?$mapped_iterator@PEAU?$pair@PEAVGlobalVariable@llvm@@VStringRef@2@@std@@P6A?AU?$pair@PEAVGlobalVariable@llvm@@V?$basic_string@DU?$char_traits@D@std@@V?$allocator@D@2@@std@@@2@U12@@ZU32@@1@XZ
	??E?$use_iterator_impl@VUse@llvm@@@Value@llvm@@QEAAAEAV012@XZ
	??E?$user_iterator_impl@VUser@llvm@@@Value@llvm@@QEAAAEAV012@XZ
	??ETrackingStatistic@llvm@@QEAAAEBV01@XZ
	??G?$iterator_adaptor_base@V?$mapped_iterator@PEAU?$pair@PEAVGlobalVariable@llvm@@VStringRef@2@@std@@P6A?AU?$pair@PEAVGlobalVariable@llvm@@V?$basic_string@DU?$char_traits@D@std@@V?$allocator@D@2@@std@@@2@U12@@ZU32@@llvm@@PEAU?$pair@PEAVGlobalVariable@llvm@@VStringRef@2@@std@@Urandom_access_iterator_tag@4@U?$pair@PEAVGlobalVariable@llvm@@V?$basic_string@DU?$char_traits@D@std@@V?$allocator@D@2@@std@@@4@_JPEAU64@U64@@llvm@@QEBA_JAEBV?$mapped_iterator@PEAU?$pair@PEAVGlobalVariable@llvm@@VStringRef@2@@std@@P6A?AU?$pair@PEAVGlobalVariable@llvm@@V?$basic_string@DU?$char_traits@D@std@@V?$allocator@D@2@@std@@@2@U12@@ZU32@@1@@Z
	??R<lambda_1>@?0??intersect@PreservedAnalyses@llvm@@QEAAX$$QEAV23@@Z@QEBA?A?<auto>@@PEAX@Z
	??R<lambda_1>@?0??reserve@?$basic_string@DU?$char_traits@D@std@@V?$allocator@D@2@@std@@QEAAX_K@Z@SA?A?<auto>@@QEADQEBD0@Z
	??R?$default_delete@U?$AnalysisPassConcept@VModule@llvm@@VInvalidator@?$AnalysisManager@VModule@llvm@@$$V@2@$$V@detail@llvm@@@std@@QEBAXPEAU?$AnalysisPassConcept@VModule@llvm@@VInvalidator@?$AnalysisManager@VModule@llvm@@$$V@2@$$V@detail@llvm@@@Z
	??R?$default_delete@U?$AnalysisResultModel@VModule@llvm@@VPassInstrumentationAnalysis@2@VPassInstrumentation@2@VInvalidator@?$AnalysisManager@VModule@llvm@@$$V@2@$00@detail@llvm@@@std@@QEBAXPEAU?$AnalysisResultModel@VModule@llvm@@VPassInstrumentationAnalysis@2@VPassInstrumentation@2@VInvalidator@?$AnalysisManager@VModule@llvm@@$$V@2@$00@detail@llvm@@@Z
	??R?$default_delete@U?$AnalysisResultModel@VModule@llvm@@VStringAnalyzer@jvs@@V?$MapVector@PEAVGlobalVariable@llvm@@VStringRef@2@V?$DenseMap@PEAVGlobalVariable@llvm@@IU?$DenseMapInfo@PEAVGlobalVariable@llvm@@X@2@U?$DenseMapPair@PEAVGlobalVariable@llvm@@I@detail@2@@2@V?$SmallVector@U?$pair@PEAVGlobalVariable@llvm@@VStringRef@2@@std@@$0A@@2@@2@VInvalidator@?$AnalysisManager@VModule@llvm@@$$V@2@$0A@@detail@llvm@@@std@@QEBAXPEAU?$AnalysisResultModel@VModule@llvm@@VStringAnalyzer@jvs@@V?$MapVector@PEAVGlobalVariable@llvm@@VStringRef@2@V?$DenseMap@PEAVGlobalVariable@llvm@@IU?$DenseMapInfo@PEAVGlobalVariable@llvm@@X@2@U?$DenseMapPair@PEAVGlobalVariable@llvm@@I@detail@2@@2@V?$SmallVector@U?$pair@PEAVGlobalVariable@llvm@@VStringRef@2@@std@@$0A@@2@@2@VInvalidator@?$AnalysisManager@VModule@llvm@@$$V@2@$0A@@detail@llvm@@@Z
	??R?$default_delete@U?$PassConcept@VModule@llvm@@V?$AnalysisManager@VModule@llvm@@$$V@2@$$V@detail@llvm@@@std@@QEBAXPEAU?$PassConcept@VModule@llvm@@V?$AnalysisManager@VModule@llvm@@$$V@2@$$V@detail@llvm@@@Z
	??R?$function_ref@$$A6A?AVStringRef@llvm@@V12@@Z@llvm@@QEBA?AVStringRef@1@V21@@Z
	??_7?$AnalysisPassConcept@VModule@llvm@@VInvalidator@?$AnalysisManager@VModule@llvm@@$$V@2@$$V@detail@llvm@@6B@
	??_7?$AnalysisPassModel@VModule@llvm@@VPassInstrumentationAnalysis@2@VInvalidator@?$AnalysisManager@VModule@llvm@@$$V@2@$$V@detail@llvm@@6B@
	??_7?$AnalysisPassModel@VModule@llvm@@VStringAnalyzer@jvs@@VInvalidator@?$AnalysisManager@VModule@llvm@@$$V@2@$$V@detail@llvm@@6B@
	??_7?$AnalysisResultConcept@VModule@llvm@@VInvalidator@?$AnalysisManager@VModule@llvm@@$$V@2@@detail@llvm@@6B@
	??_7?$AnalysisResultModel@VModule@llvm@@VPassInstrumentationAnalysis@2@VPassInstrumentation@2@VInvalidator@?$AnalysisManager@VModule@llvm@@$$V@2@$00@detail@llvm@@6B@
	??_7?$AnalysisResultModel@VModule@llvm@@VStringAnalyzer@jvs@@V?$MapVector@PEAVGlobalVariable@llvm@@VStringRef@2@V?$DenseMap@PEAVGlobalVariable@llvm@@IU?$DenseMapInfo@PEAVGlobalVariable@llvm@@X@2@U?$DenseMapPair@PEAVGlobalVariable@llvm@@I@detail@2@@2@V?$SmallVector@U?$pair@PEAVGlobalVariable@llvm@@VStringRef@2@@std@@$0A@@2@@2@VInvalidator@?$AnalysisManager@VModule@llvm@@$$V@2@$0A@@detail@llvm@@6B@
	??_7?$PassConcept@VModule@llvm@@V?$AnalysisManager@VModule@llvm@@$$V@2@$$V@detail@llvm@@6B@
	??_7?$PassModel@VModule@llvm@@VStringAnalyzerPrinter@jvs@@V?$AnalysisManager@VModule@llvm@@$$V@2@$$V@detail@llvm@@6B@
	??_7?$PassModel@VModule@llvm@@VStringReverser@jvs@@V?$AnalysisManager@VModule@llvm@@$$V@2@$$V@detail@llvm@@6B@
	??_7?$_Func_impl_no_alloc@P6AXAEAV?$AnalysisManager@VModule@llvm@@$$V@llvm@@@ZXAEAV12@@std@@6B@
	??_7?$_Func_impl_no_alloc@P6A_NVStringRef@llvm@@AEAV?$PassManager@VModule@llvm@@V?$AnalysisManager@VModule@llvm@@$$V@2@$$V@2@V?$ArrayRef@UPipelineElement@PassBuilder@llvm@@@2@@Z_NV12@AEAV32@V42@@std@@6B@
	??_7bad_alloc@std@@6B@
	??_7bad_array_new_length@std@@6B@
	??_7exception@std@@6B@
	??_7raw_ostream@llvm@@6B@
	??_7raw_string_ostream@llvm@@6B@
	?AdvanceIfNotValid@SmallPtrSetIteratorImpl@llvm@@IEAAXXZ
	?AdvancePastEmptyBuckets@?$DenseMapIterator@PEAVGlobalVariable@llvm@@IU?$DenseMapInfo@PEAVGlobalVariable@llvm@@X@2@U?$DenseMapPair@PEAVGlobalVariable@llvm@@I@detail@2@$0A@@llvm@@AEAAXXZ
	?EndPointer@SmallPtrSetImplBase@llvm@@IEBAPEAPEBXXZ
	?GetEscapedString@jvs@@YA?AV?$basic_string@DU?$char_traits@D@std@@V?$allocator@D@2@@std@@VStringRef@llvm@@@Z
	?GetNumBytesInBuffer@raw_ostream@llvm@@QEBA_KXZ
	?ID@?$AnalysisInfoMixin@VPassInstrumentationAnalysis@llvm@@@llvm@@SAPEAUAnalysisKey@2@XZ
	?ID@?$AnalysisInfoMixin@VStringAnalyzer@jvs@@@llvm@@SAPEAUAnalysisKey@2@XZ
	?ID@CFGAnalyses@llvm@@SAPEAUAnalysisSetKey@2@XZ
	?NextPowerOf2@llvm@@YA_K_K@Z
	?RegisterPluginPasses@jvs@@YAXAEAVPassBuilder@llvm@@@Z
	?RetreatIfNotValid@SmallPtrSetIteratorImpl@llvm@@IEAAXXZ
	?RetreatPastEmptyBuckets@?$DenseMapIterator@PEAVGlobalVariable@llvm@@IU?$DenseMapInfo@PEAVGlobalVariable@llvm@@X@2@U?$DenseMapPair@PEAVGlobalVariable@llvm@@I@detail@2@$0A@@llvm@@AEAAXXZ
	?SetUnbuffered@raw_ostream@llvm@@QEAAXXZ
	?_Activate_SSO_buffer@?$_String_val@U?$_Simple_types@D@std@@@std@@QEAAXXZ
	?_Adjust_manually_vector_aligned@std@@YAXAEAPEAXAEA_K@Z
	?_Adopt@_Iterator_base0@std@@QEAAXPEBX@Z
	?_Alloc_proxy@_Container_base0@std@@QEAAXAEBU_Fake_allocator@2@@Z
	?_Allocate@_Default_allocate_traits@std@@SAPEAX_K@Z
	?_Calculate_growth@?$basic_string@DU?$char_traits@D@std@@V?$allocator@D@2@@std@@AEBA_K_K@Z
	?_Calculate_growth@?$basic_string@DU?$char_traits@D@std@@V?$allocator@D@2@@std@@CA_K_K00@Z
	?_Calculate_growth@?$vector@V?$unique_ptr@U?$PassConcept@VModule@llvm@@V?$AnalysisManager@VModule@llvm@@$$V@2@$$V@detail@llvm@@U?$default_delete@U?$PassConcept@VModule@llvm@@V?$AnalysisManager@VModule@llvm@@$$V@2@$$V@detail@llvm@@@std@@@std@@V?$allocator@V?$unique_ptr@U?$PassConcept@VModule@llvm@@V?$AnalysisManager@VModule@llvm@@$$V@2@$$V@detail@llvm@@U?$default_delete@U?$PassConcept@VModule@llvm@@V?$AnalysisManager@VModule@llvm@@$$V@2@$$V@detail@llvm@@@std@@@std@@@2@@std@@AEBA_K_K@Z
	?_Change_array@?$vector@V?$unique_ptr@U?$PassConcept@VModule@llvm@@V?$AnalysisManager@VModule@llvm@@$$V@2@$$V@detail@llvm@@U?$default_delete@U?$PassConcept@VModule@llvm@@V?$AnalysisManager@VModule@llvm@@$$V@2@$$V@detail@llvm@@@std@@@std@@V?$allocator@V?$unique_ptr@U?$PassConcept@VModule@llvm@@V?$AnalysisManager@VModule@llvm@@$$V@2@$$V@detail@llvm@@U?$default_delete@U?$PassConcept@VModule@llvm@@V?$AnalysisManager@VModule@llvm@@$$V@2@$$V@detail@llvm@@@std@@@std@@@2@@std@@AEAAXQEAV?$unique_ptr@U?$PassConcept@VModule@llvm@@V?$AnalysisManager@VModule@llvm@@$$V@2@$$V@detail@llvm@@U?$default_delete@U?$PassConcept@VModule@llvm@@V?$AnalysisManager@VModule@llvm@@$$V@2@$$V@detail@llvm@@@std@@@2@_K1@Z
	?_Check_offset@?$basic_string_view@DU?$char_traits@D@std@@@std@@AEBAX_K@Z
	?_Clamp_suffix_size@?$basic_string_view@DU?$char_traits@D@std@@@std@@AEBA_K_K0@Z
	?_Construct_empty@?$basic_string@DU?$char_traits@D@std@@V?$allocator@D@2@@std@@AEAAXXZ
	?_Copy@?$_Func_impl_no_alloc@P6AXAEAV?$AnalysisManager@VModule@llvm@@$$V@llvm@@@ZXAEAV12@@std@@EEBAPEAV?$_Func_base@XAEAV?$AnalysisManager@VModule@llvm@@$$V@llvm@@@2@PEAX@Z
	?_Copy@?$_Func_impl_no_alloc@P6A_NVStringRef@llvm@@AEAV?$PassManager@VModule@llvm@@V?$AnalysisManager@VModule@llvm@@$$V@2@$$V@2@V?$ArrayRef@UPipelineElement@PassBuilder@llvm@@@2@@Z_NV12@AEAV32@V42@@std@@EEBAPEAV?$_Func_base@_NVStringRef@llvm@@AEAV?$PassManager@VModule@llvm@@V?$AnalysisManager@VModule@llvm@@$$V@2@$$V@2@V?$ArrayRef@UPipelineElement@PassBuilder@llvm@@@2@@2@PEAX@Z
	?_Deallocate_for_capacity@?$basic_string@DU?$char_traits@D@std@@V?$allocator@D@2@@std@@CAXAEAV?$allocator@D@2@QEAD_K@Z
	?_Delete_this@?$_Func_impl_no_alloc@P6AXAEAV?$AnalysisManager@VModule@llvm@@$$V@llvm@@@ZXAEAV12@@std@@EEAAX_N@Z
	?_Delete_this@?$_Func_impl_no_alloc@P6A_NVStringRef@llvm@@AEAV?$PassManager@VModule@llvm@@V?$AnalysisManager@VModule@llvm@@$$V@2@$$V@2@V?$ArrayRef@UPipelineElement@PassBuilder@llvm@@@2@@Z_NV12@AEAV32@V42@@std@@EEAAX_N@Z
	?_Do_call@?$_Func_impl_no_alloc@P6AXAEAV?$AnalysisManager@VModule@llvm@@$$V@llvm@@@ZXAEAV12@@std@@EEAAXAEAV?$AnalysisManager@VModule@llvm@@$$V@llvm@@@Z
	?_Do_call@?$_Func_impl_no_alloc@P6A_NVStringRef@llvm@@AEAV?$PassManager@VModule@llvm@@V?$AnalysisManager@VModule@llvm@@$$V@2@$$V@2@V?$ArrayRef@UPipelineElement@PassBuilder@llvm@@@2@@Z_NV12@AEAV32@V42@@std@@EEAA_N$$QEAVStringRef@llvm@@AEAV?$PassManager@VModule@llvm@@V?$AnalysisManager@VModule@llvm@@$$V@2@$$V@4@$$QEAV?$ArrayRef@UPipelineElement@PassBuilder@llvm@@@4@@Z
	?_Empty@?$_Func_class@XAEAV?$AnalysisManager@VModule@llvm@@$$V@llvm@@@std@@IEBA_NXZ
	?_Empty@?$_Func_class@_NVStringRef@llvm@@AEAV?$PassManager@VModule@llvm@@V?$AnalysisManager@VModule@llvm@@$$V@2@$$V@2@V?$ArrayRef@UPipelineElement@PassBuilder@llvm@@@2@@std@@IEBA_NXZ
	?_Get@?$_Func_impl_no_alloc@P6AXAEAV?$AnalysisManager@VModule@llvm@@$$V@llvm@@@ZXAEAV12@@std@@EEBAPEBXXZ
	?_Get@?$_Func_impl_no_alloc@P6A_NVStringRef@llvm@@AEAV?$PassManager@VModule@llvm@@V?$AnalysisManager@VModule@llvm@@$$V@2@$$V@2@V?$ArrayRef@UPipelineElement@PassBuilder@llvm@@@2@@Z_NV12@AEAV32@V42@@std@@EEBAPEBXXZ
	?_Get_first@?$_Compressed_pair@U?$default_delete@U?$AnalysisPassConcept@VModule@llvm@@VInvalidator@?$AnalysisManager@VModule@llvm@@$$V@2@$$V@detail@llvm@@@std@@PEAU?$AnalysisPassConcept@VModule@llvm@@VInvalidator@?$AnalysisManager@VModule@llvm@@$$V@2@$$V@detail@llvm@@$00@std@@QEAAAEAU?$default_delete@U?$AnalysisPassConcept@VModule@llvm@@VInvalidator@?$AnalysisManager@VModule@llvm@@$$V@2@$$V@detail@llvm@@@2@XZ
	?_Get_first@?$_Compressed_pair@U?$default_delete@U?$AnalysisResultModel@VModule@llvm@@VPassInstrumentationAnalysis@2@VPassInstrumentation@2@VInvalidator@?$AnalysisManager@VModule@llvm@@$$V@2@$00@detail@llvm@@@std@@PEAU?$AnalysisResultModel@VModule@llvm@@VPassInstrumentationAnalysis@2@VPassInstrumentation@2@VInvalidator@?$AnalysisManager@VModule@llvm@@$$V@2@$00@detail@llvm@@$00@std@@QEAAAEAU?$default_delete@U?$AnalysisResultModel@VModule@llvm@@VPassInstrumentationAnalysis@2@VPassInstrumentation@2@VInvalidator@?$AnalysisManager@VModule@llvm@@$$V@2@$00@detail@llvm@@@2@XZ
	?_Get_first@?$_Compressed_pair@U?$default_delete@U?$AnalysisResultModel@VModule@llvm@@VStringAnalyzer@jvs@@V?$MapVector@PEAVGlobalVariable@llvm@@VStringRef@2@V?$DenseMap@PEAVGlobalVariable@llvm@@IU?$DenseMapInfo@PEAVGlobalVariable@llvm@@X@2@U?$DenseMapPair@PEAVGlobalVariable@llvm@@I@detail@2@@2@V?$SmallVector@U?$pair@PEAVGlobalVariable@llvm@@VStringRef@2@@std@@$0A@@2@@2@VInvalidator@?$AnalysisManager@VModule@llvm@@$$V@2@$0A@@detail@llvm@@@std@@PEAU?$AnalysisResultModel@VModule@llvm@@VStringAnalyzer@jvs@@V?$MapVector@PEAVGlobalVariable@llvm@@VStringRef@2@V?$DenseMap@PEAVGlobalVariable@llvm@@IU?$DenseMapInfo@PEAVGlobalVariable@llvm@@X@2@U?$DenseMapPair@PEAVGlobalVariable@llvm@@I@detail@2@@2@V?$SmallVector@U?$pair@PEAVGlobalVariable@llvm@@VStringRef@2@@std@@$0A@@2@@2@VInvalidator@?$AnalysisManager@VModule@llvm@@$$V@2@$0A@@detail@llvm@@$00@std@@QEAAAEAU?$default_delete@U?$AnalysisResultModel@VModule@llvm@@VStringAnalyzer@jvs@@V?$MapVector@PEAVGlobalVariable@llvm@@VStringRef@2@V?$DenseMap@PEAVGlobalVariable@llvm@@IU?$DenseMapInfo@PEAVGlobalVariable@llvm@@X@2@U?$DenseMapPair@PEAVGlobalVariable@llvm@@I@detail@2@@2@V?$SmallVector@U?$pair@PEAVGlobalVariable@llvm@@VStringRef@2@@std@@$0A@@2@@2@VInvalidator@?$AnalysisManager@VModule@llvm@@$$V@2@$0A@@detail@llvm@@@2@XZ
	?_Get_first@?$_Compressed_pair@U?$default_delete@U?$PassConcept@VModule@llvm@@V?$AnalysisManager@VModule@llvm@@$$V@2@$$V@detail@llvm@@@std@@PEAU?$PassConcept@VModule@llvm@@V?$AnalysisManager@VModule@llvm@@$$V@2@$$V@detail@llvm@@$00@std@@QEAAAEAU?$default_delete@U?$PassConcept@VModule@llvm@@V?$AnalysisManager@VModule@llvm@@$$V@2@$$V@detail@llvm@@@2@XZ
	?_Get_first@?$_Compressed_pair@V?$allocator@D@std@@V?$_String_val@U?$_Simple_types@D@std@@@2@$00@std@@QEAAAEAV?$allocator@D@2@XZ
	?_Get_first@?$_Compressed_pair@V?$allocator@D@std@@V?$_String_val@U?$_Simple_types@D@std@@@2@$00@std@@QEBAAEBV?$allocator@D@2@XZ
	?_Get_first@?$_Compressed_pair@V?$allocator@V?$unique_ptr@U?$PassConcept@VModule@llvm@@V?$AnalysisManager@VModule@llvm@@$$V@2@$$V@detail@llvm@@U?$default_delete@U?$PassConcept@VModule@llvm@@V?$AnalysisManager@VModule@llvm@@$$V@2@$$V@detail@llvm@@@std@@@std@@@std@@V?$_Vector_val@U?$_Simple_types@V?$unique_ptr@U?$PassConcept@VModule@llvm@@V?$AnalysisManager@VModule@llvm@@$$V@2@$$V@detail@llvm@@U?$default_delete@U?$PassConcept@VModule@llvm@@V?$AnalysisManager@VModule@llvm@@$$V@2@$$V@detail@llvm@@@std@@@std@@@std@@@2@$00@std@@QEAAAEAV?$allocator@V?$unique_ptr@U?$PassConcept@VModule@llvm@@V?$AnalysisManager@VModule@llvm@@$$V@2@$$V@detail@llvm@@U?$default_delete@U?$PassConcept@VModule@llvm@@V?$AnalysisManager@VModule@llvm@@$$V@2@$$V@detail@llvm@@@std@@@std@@@2@XZ
	?_Get_first@?$_Compressed_pair@V?$allocator@V?$unique_ptr@U?$PassConcept@VModule@llvm@@V?$AnalysisManager@VModule@llvm@@$$V@2@$$V@detail@llvm@@U?$default_delete@U?$PassConcept@VModule@llvm@@V?$AnalysisManager@VModule@llvm@@$$V@2@$$V@detail@llvm@@@std@@@std@@@std@@V?$_Vector_val@U?$_Simple_types@V?$unique_ptr@U?$PassConcept@VModule@llvm@@V?$AnalysisManager@VModule@llvm@@$$V@2@$$V@detail@llvm@@U?$default_delete@U?$PassConcept@VModule@llvm@@V?$AnalysisManager@VModule@llvm@@$$V@2@$$V@detail@llvm@@@std@@@std@@@std@@@2@$00@std@@QEBAAEBV?$allocator@V?$unique_ptr@U?$PassConcept@VModule@llvm@@V?$AnalysisManager@VModule@llvm@@$$V@2@$$V@detail@llvm@@U?$default_delete@U?$PassConcept@VModule@llvm@@V?$AnalysisManager@VModule@llvm@@$$V@2@$$V@detail@llvm@@@std@@@std@@@2@XZ
	?_Getal@?$basic_string@DU?$char_traits@D@std@@V?$allocator@D@2@@std@@AEAAAEAV?$allocator@D@2@XZ
	?_Getal@?$basic_string@DU?$char_traits@D@std@@V?$allocator@D@2@@std@@AEBAAEBV?$allocator@D@2@XZ
	?_Getal@?$vector@V?$unique_ptr@U?$PassConcept@VModule@llvm@@V?$AnalysisManager@VModule@llvm@@$$V@2@$$V@detail@llvm@@U?$default_delete@U?$PassConcept@VModule@llvm@@V?$AnalysisManager@VModule@llvm@@$$V@2@$$V@detail@llvm@@@std@@@std@@V?$allocator@V?$unique_ptr@U?$PassConcept@VModule@llvm@@V?$AnalysisManager@VModule@llvm@@$$V@2@$$V@detail@llvm@@U?$default_delete@U?$PassConcept@VModule@llvm@@V?$AnalysisManager@VModule@llvm@@$$V@2@$$V@detail@llvm@@@std@@@std@@@2@@std@@AEAAAEAV?$allocator@V?$unique_ptr@U?$PassConcept@VModule@llvm@@V?$AnalysisManager@VModule@llvm@@$$V@2@$$V@detail@llvm@@U?$default_delete@U?$PassConcept@VModule@llvm@@V?$AnalysisManager@VModule@llvm@@$$V@2@$$V@detail@llvm@@@std@@@std@@@2@XZ
	?_Getal@?$vector@V?$unique_ptr@U?$PassConcept@VModule@llvm@@V?$AnalysisManager@VModule@llvm@@$$V@2@$$V@detail@llvm@@U?$default_delete@U?$PassConcept@VModule@llvm@@V?$AnalysisManager@VModule@llvm@@$$V@2@$$V@detail@llvm@@@std@@@std@@V?$allocator@V?$unique_ptr@U?$PassConcept@VModule@llvm@@V?$AnalysisManager@VModule@llvm@@$$V@2@$$V@detail@llvm@@U?$default_delete@U?$PassConcept@VModule@llvm@@V?$AnalysisManager@VModule@llvm@@$$V@2@$$V@detail@llvm@@@std@@@std@@@2@@std@@AEBAAEBV?$allocator@V?$unique_ptr@U?$PassConcept@VModule@llvm@@V?$AnalysisManager@VModule@llvm@@$$V@2@$$V@detail@llvm@@U?$default_delete@U?$PassConcept@VModule@llvm@@V?$AnalysisManager@VModule@llvm@@$$V@2@$$V@detail@llvm@@@std@@@std@@@2@XZ
	?_Getimpl@?$_Func_class@XAEAV?$AnalysisManager@VModule@llvm@@$$V@llvm@@@std@@AEBAPEAV?$_Func_base@XAEAV?$AnalysisManager@VModule@llvm@@$$V@llvm@@@2@XZ
	?_Getimpl@?$_Func_class@_NVStringRef@llvm@@AEAV?$PassManager@VModule@llvm@@V?$AnalysisManager@VModule@llvm@@$$V@2@$$V@2@V?$ArrayRef@UPipelineElement@PassBuilder@llvm@@@2@@std@@AEBAPEAV?$_Func_base@_NVStringRef@llvm@@AEAV?$PassManager@VModule@llvm@@V?$AnalysisManager@VModule@llvm@@$$V@2@$$V@2@V?$ArrayRef@UPipelineElement@PassBuilder@llvm@@@2@@2@XZ
	?_Large_mode_engaged@?$_String_val@U?$_Simple_types@D@std@@@std@@QEBA_NXZ
	?_Local@?$_Func_class@XAEAV?$AnalysisManager@VModule@llvm@@$$V@llvm@@@std@@AEBA_NXZ
	?_Local@?$_Func_class@_NVStringRef@llvm@@AEAV?$PassManager@VModule@llvm@@V?$AnalysisManager@VModule@llvm@@$$V@2@$$V@2@V?$ArrayRef@UPipelineElement@PassBuilder@llvm@@@2@@std@@AEBA_NXZ
	?_Move@?$_Func_impl_no_alloc@P6AXAEAV?$AnalysisManager@VModule@llvm@@$$V@llvm@@@ZXAEAV12@@std@@EEAAPEAV?$_Func_base@XAEAV?$AnalysisManager@VModule@llvm@@$$V@llvm@@@2@PEAX@Z
	?_Move@?$_Func_impl_no_alloc@P6A_NVStringRef@llvm@@AEAV?$PassManager@VModule@llvm@@V?$AnalysisManager@VModule@llvm@@$$V@2@$$V@2@V?$ArrayRef@UPipelineElement@PassBuilder@llvm@@@2@@Z_NV12@AEAV32@V42@@std@@EEAAPEAV?$_Func_base@_NVStringRef@llvm@@AEAV?$PassManager@VModule@llvm@@V?$AnalysisManager@VModule@llvm@@$$V@2@$$V@2@V?$ArrayRef@UPipelineElement@PassBuilder@llvm@@@2@@2@PEAX@Z
	?_Myptr@?$_String_val@U?$_Simple_types@D@std@@@std@@QEAAPEADXZ
	?_Myptr@?$_String_val@U?$_Simple_types@D@std@@@std@@QEBAPEBDXZ
	?_Orphan_all@_Container_base0@std@@QEAAXXZ
	?_Orphan_range@?$vector@V?$unique_ptr@U?$PassConcept@VModule@llvm@@V?$AnalysisManager@VModule@llvm@@$$V@2@$$V@detail@llvm@@U?$default_delete@U?$PassConcept@VModule@llvm@@V?$AnalysisManager@VModule@llvm@@$$V@2@$$V@detail@llvm@@@std@@@std@@V?$allocator@V?$unique_ptr@U?$PassConcept@VModule@llvm@@V?$AnalysisManager@VModule@llvm@@$$V@2@$$V@detail@llvm@@U?$default_delete@U?$PassConcept@VModule@llvm@@V?$AnalysisManager@VModule@llvm@@$$V@2@$$V@detail@llvm@@@std@@@std@@@2@@std@@AEBAXPEAV?$unique_ptr@U?$PassConcept@VModule@llvm@@V?$AnalysisManager@VModule@llvm@@$$V@2@$$V@detail@llvm@@U?$default_delete@U?$PassConcept@VModule@llvm@@V?$AnalysisManager@VModule@llvm@@$$V@2@$$V@detail@llvm@@@std@@@2@0@Z
	?_Release@?$_Uninitialized_backout@PEAU?$pair@PEAVGlobalVariable@llvm@@V?$basic_string@DU?$char_traits@D@std@@V?$allocator@D@2@@std@@@std@@@std@@QEAAPEAU?$pair@PEAVGlobalVariable@llvm@@V?$basic_string@DU?$char_traits@D@std@@V?$allocator@D@2@@std@@@2@XZ
	?_Release@?$_Uninitialized_backout@PEAV?$function@$$A6AXAEAV?$AnalysisManager@VModule@llvm@@$$V@llvm@@@Z@std@@@std@@QEAAPEAV?$function@$$A6AXAEAV?$AnalysisManager@VModule@llvm@@$$V@llvm@@@Z@2@XZ
	?_Release@?$_Uninitialized_backout@PEAV?$function@$$A6A_NVStringRef@llvm@@AEAV?$PassManager@VModule@llvm@@V?$AnalysisManager@VModule@llvm@@$$V@2@$$V@2@V?$ArrayRef@UPipelineElement@PassBuilder@llvm@@@2@@Z@std@@@std@@QEAAPEAV?$function@$$A6A_NVStringRef@llvm@@AEAV?$PassManager@VModule@llvm@@V?$AnalysisManager@VModule@llvm@@$$V@2@$$V@2@V?$ArrayRef@UPipelineElement@PassBuilder@llvm@@@2@@Z@2@XZ
	?_Release@?$_Uninitialized_backout_al@V?$allocator@V?$unique_ptr@U?$PassConcept@VModule@llvm@@V?$AnalysisManager@VModule@llvm@@$$V@2@$$V@detail@llvm@@U?$default_delete@U?$PassConcept@VModule@llvm@@V?$AnalysisManager@VModule@llvm@@$$V@2@$$V@detail@llvm@@@std@@@std@@@std@@@std@@QEAAPEAV?$unique_ptr@U?$PassConcept@VModule@llvm@@V?$AnalysisManager@VModule@llvm@@$$V@2@$$V@detail@llvm@@U?$default_delete@U?$PassConcept@VModule@llvm@@V?$AnalysisManager@VModule@llvm@@$$V@2@$$V@detail@llvm@@@std@@@2@XZ
	?_Release@_Fake_proxy_ptr_impl@std@@QEAAXXZ
	?_Reset_copy@?$_Func_class@XAEAV?$AnalysisManager@VModule@llvm@@$$V@llvm@@@std@@IEAAXAEBV12@@Z
	?_Reset_copy@?$_Func_class@_NVStringRef@llvm@@AEAV?$PassManager@VModule@llvm@@V?$AnalysisManager@VModule@llvm@@$$V@2@$$V@2@V?$ArrayRef@UPipelineElement@PassBuilder@llvm@@@2@@std@@IEAAXAEBV12@@Z
	?_Reset_move@?$_Func_class@XAEAV?$AnalysisManager@VModule@llvm@@$$V@llvm@@@std@@IEAAX$$QEAV12@@Z
	?_Reset_move@?$_Func_class@_NVStringRef@llvm@@AEAV?$PassManager@VModule@llvm@@V?$AnalysisManager@VModule@llvm@@$$V@2@$$V@2@V?$ArrayRef@UPipelineElement@PassBuilder@llvm@@@2@@std@@IEAAX$$QEAV12@@Z
	?_Set@?$_Func_class@XAEAV?$AnalysisManager@VModule@llvm@@$$V@llvm@@@std@@AEAAXPEAV?$_Func_base@XAEAV?$AnalysisManager@VModule@llvm@@$$V@llvm@@@2@@Z
	?_Set@?$_Func_class@_NVStringRef@llvm@@AEAV?$PassManager@VModule@llvm@@V?$AnalysisManager@VModule@llvm@@$$V@2@$$V@2@V?$ArrayRef@UPipelineElement@PassBuilder@llvm@@@2@@std@@AEAAXPEAV?$_Func_base@_NVStringRef@llvm@@AEAV?$PassManager@VModule@llvm@@V?$AnalysisManager@VModule@llvm@@$$V@2@$$V@2@V?$ArrayRef@UPipelineElement@PassBuilder@llvm@@@2@@2@@Z
	?_Switch_to_buf@_Bxty@?$_String_val@U?$_Simple_types@D@std@@@std@@QEAAXXZ
	?_Take_contents@?$basic_string@DU?$char_traits@D@std@@V?$allocator@D@2@@std@@AEAAXAEAV12@@Z
	?_Target_type@?$_Func_impl_no_alloc@P6AXAEAV?$AnalysisManager@VModule@llvm@@$$V@llvm@@@ZXAEAV12@@std@@EEBAAEBVtype_info@@XZ
	?_Target_type@?$_Func_impl_no_alloc@P6A_NVStringRef@llvm@@AEAV?$PassManager@VModule@llvm@@V?$AnalysisManager@VModule@llvm@@$$V@2@$$V@2@V?$ArrayRef@UPipelineElement@PassBuilder@llvm@@@2@@Z_NV12@AEAV32@V42@@std@@EEBAAEBVtype_info@@XZ
	?_Throw_bad_array_new_length@std@@YAXXZ
	?_Tidy@?$_Func_class@XAEAV?$AnalysisManager@VModule@llvm@@$$V@llvm@@@std@@IEAAXXZ
	?_Tidy@?$_Func_class@_NVStringRef@llvm@@AEAV?$PassManager@VModule@llvm@@V?$AnalysisManager@VModule@llvm@@$$V@2@$$V@2@V?$ArrayRef@UPipelineElement@PassBuilder@llvm@@@2@@std@@IEAAXXZ
	?_Tidy_deallocate@?$basic_string@DU?$char_traits@D@std@@V?$allocator@D@2@@std@@AEAAXXZ
	?_Unwrapped@?$_String_iterator@V?$_String_val@U?$_Simple_types@D@std@@@std@@@std@@QEBAPEADXZ
	?_Xlen_string@std@@YAXXZ
	?_Xlength@?$vector@V?$unique_ptr@U?$PassConcept@VModule@llvm@@V?$AnalysisManager@VModule@llvm@@$$V@2@$$V@detail@llvm@@U?$default_delete@U?$PassConcept@VModule@llvm@@V?$AnalysisManager@VModule@llvm@@$$V@2@$$V@detail@llvm@@@std@@@std@@V?$allocator@V?$unique_ptr@U?$PassConcept@VModule@llvm@@V?$AnalysisManager@VModule@llvm@@$$V@2@$$V@detail@llvm@@U?$default_delete@U?$PassConcept@VModule@llvm@@V?$AnalysisManager@VModule@llvm@@$$V@2@$$V@detail@llvm@@@std@@@std@@@2@@std@@CAXXZ
	?_Xran@?$basic_string_view@DU?$char_traits@D@std@@@std@@CAXXZ
	?all@PreservedAnalyses@llvm@@SA?AV12@XZ
	?allocate@?$allocator@D@std@@QEAAPEAD_K@Z
	?allocate@?$allocator@V?$unique_ptr@U?$PassConcept@VModule@llvm@@V?$AnalysisManager@VModule@llvm@@$$V@2@$$V@detail@llvm@@U?$default_delete@U?$PassConcept@VModule@llvm@@V?$AnalysisManager@VModule@llvm@@$$V@2@$$V@detail@llvm@@@std@@@std@@@std@@QEAAPEAV?$unique_ptr@U?$PassConcept@VModule@llvm@@V?$AnalysisManager@VModule@llvm@@$$V@2@$$V@detail@llvm@@U?$default_delete@U?$PassConcept@VModule@llvm@@V?$AnalysisManager@VModule@llvm@@$$V@2@$$V@detail@llvm@@@std@@@2@_K@Z
	?allocateBuckets@?$DenseMap@PEAUAnalysisKey@llvm@@V?$unique_ptr@U?$AnalysisPassConcept@VModule@llvm@@VInvalidator@?$AnalysisManager@VModule@llvm@@$$V@2@$$V@detail@llvm@@U?$default_delete@U?$AnalysisPassConcept@VModule@llvm@@VInvalidator@?$AnalysisManager@VModule@llvm@@$$V@2@$$V@detail@llvm@@@std@@@std@@U?$DenseMapInfo@PEAUAnalysisKey@llvm@@X@2@U?$DenseMapPair@PEAUAnalysisKey@llvm@@V?$unique_ptr@U?$AnalysisPassConcept@VModule@llvm@@VInvalidator@?$AnalysisManager@VModule@llvm@@$$V@2@$$V@detail@llvm@@U?$default_delete@U?$AnalysisPassConcept@VModule@llvm@@VInvalidator@?$AnalysisManager@VModule@llvm@@$$V@2@$$V@detail@llvm@@@std@@@std@@@detail@2@@llvm@@AEAA_NI@Z
	?allocateBuckets@?$DenseMap@PEAVGlobalVariable@llvm@@IU?$DenseMapInfo@PEAVGlobalVariable@llvm@@X@2@U?$DenseMapPair@PEAVGlobalVariable@llvm@@I@detail@2@@llvm@@AEAA_NI@Z
	?areAllPreserved@PreservedAnalyses@llvm@@QEBA_NXZ
	?asInt@?$PunnedPointer@PEAV?$ilist_node_base@$00X@llvm@@@detail@llvm@@QEBA_JXZ
	?assertModuleIsMaterialized@Value@llvm@@QEBAXXZ
	?assign@?$_Narrow_char_traits@DH@std@@SAXAEADAEBD@Z
	?assignRemote@?$SmallVectorImpl@U?$pair@PEAVGlobalVariable@llvm@@VStringRef@2@@std@@@llvm@@IEAAX$$QEAV12@@Z
	?back@?$SmallVectorTemplateCommon@U?$pair@PEAVGlobalVariable@llvm@@V?$basic_string@DU?$char_traits@D@std@@V?$allocator@D@2@@std@@@std@@X@llvm@@QEAAAEAU?$pair@PEAVGlobalVariable@llvm@@V?$basic_string@DU?$char_traits@D@std@@V?$allocator@D@2@@std@@@std@@XZ
	?back@?$SmallVectorTemplateCommon@U?$pair@PEAVGlobalVariable@llvm@@VStringRef@2@@std@@X@llvm@@QEAAAEAU?$pair@PEAVGlobalVariable@llvm@@VStringRef@2@@std@@XZ
	?begin@?$MapVector@PEAVGlobalVariable@llvm@@VStringRef@2@V?$DenseMap@PEAVGlobalVariable@llvm@@IU?$DenseMapInfo@PEAVGlobalVariable@llvm@@X@2@U?$DenseMapPair@PEAVGlobalVariable@llvm@@I@detail@2@@2@V?$SmallVector@U?$pair@PEAVGlobalVariable@llvm@@VStringRef@2@@std@@$0A@@2@@llvm@@QEAAPEAU?$pair@PEAVGlobalVariable@llvm@@VStringRef@2@@std@@XZ
	?begin@?$SmallPtrSetImpl@PEAUAnalysisKey@llvm@@@llvm@@QEBA?AV?$SmallPtrSetIterator@PEAUAnalysisKey@llvm@@@2@XZ
	?begin@?$SmallVectorTemplateCommon@U?$pair@PEAVGlobalVariable@llvm@@V?$basic_string@DU?$char_traits@D@std@@V?$allocator@D@2@@std@@@std@@X@llvm@@QEAAPEAU?$pair@PEAVGlobalVariable@llvm@@V?$basic_string@DU?$char_traits@D@std@@V?$allocator@D@2@@std@@@std@@XZ
	?begin@?$SmallVectorTemplateCommon@U?$pair@PEAVGlobalVariable@llvm@@VStringRef@2@@std@@X@llvm@@QEAAPEAU?$pair@PEAVGlobalVariable@llvm@@VStringRef@2@@std@@XZ
	?begin@?$SmallVectorTemplateCommon@U?$pair@PEAVGlobalVariable@llvm@@VStringRef@2@@std@@X@llvm@@QEBAPEBU?$pair@PEAVGlobalVariable@llvm@@VStringRef@2@@std@@XZ
	?begin@?$SmallVectorTemplateCommon@V?$function@$$A6AXAEAV?$AnalysisManager@VModule@llvm@@$$V@llvm@@@Z@std@@X@llvm@@QEAAPEAV?$function@$$A6AXAEAV?$AnalysisManager@VModule@llvm@@$$V@llvm@@@Z@std@@XZ
	?begin@?$SmallVectorTemplateCommon@V?$function@$$A6AXAEAV?$AnalysisManager@VModule@llvm@@$$V@llvm@@@Z@std@@X@llvm@@QEBAPEBV?$function@$$A6AXAEAV?$AnalysisManager@VModule@llvm@@$$V@llvm@@@Z@std@@XZ
	?begin@?$SmallVectorTemplateCommon@V?$function@$$A6A_NVStringRef@llvm@@AEAV?$PassManager@VModule@llvm@@V?$AnalysisManager@VModule@llvm@@$$V@2@$$V@2@V?$ArrayRef@UPipelineElement@PassBuilder@llvm@@@2@@Z@std@@X@llvm@@QEAAPEAV?$function@$$A6A_NVStringRef@llvm@@AEAV?$PassManager@VModule@llvm@@V?$AnalysisManager@VModule@llvm@@$$V@2@$$V@2@V?$ArrayRef@UPipelineElement@PassBuilder@llvm@@@2@@Z@std@@XZ
	?begin@?$SmallVectorTemplateCommon@V?$function@$$A6A_NVStringRef@llvm@@AEAV?$PassManager@VModule@llvm@@V?$AnalysisManager@VModule@llvm@@$$V@2@$$V@2@V?$ArrayRef@UPipelineElement@PassBuilder@llvm@@@2@@Z@std@@X@llvm@@QEBAPEBV?$function@$$A6A_NVStringRef@llvm@@AEAV?$PassManager@VModule@llvm@@V?$AnalysisManager@VModule@llvm@@$$V@2@$$V@2@V?$ArrayRef@UPipelineElement@PassBuilder@llvm@@@2@@Z@std@@XZ
	?begin@?$basic_string@DU?$char_traits@D@std@@V?$allocator@D@2@@std@@QEAA?AV?$_String_iterator@V?$_String_val@U?$_Simple_types@D@std@@@std@@@2@XZ
	?begin@?$iterator_range@V?$filter_iterator_impl@V?$ilist_iterator@U?$node_options@VGlobalVariable@llvm@@$00$0A@X$0A@X@ilist_detail@llvm@@$0A@$0A@@llvm@@P6A_NAEBVGlobalVariable@2@@_EUbidirectional_iterator_tag@std@@@llvm@@@llvm@@QEBA?AV?$filter_iterator_impl@V?$ilist_iterator@U?$node_options@VGlobalVariable@llvm@@$00$0A@X$0A@X@ilist_detail@llvm@@$0A@$0A@@llvm@@P6A_NAEBVGlobalVariable@2@@_EUbidirectional_iterator_tag@std@@@2@XZ
	?begin@?$iterator_range@V?$ilist_iterator@U?$node_options@VGlobalVariable@llvm@@$00$0A@X$0A@X@ilist_detail@llvm@@$0A@$0A@@llvm@@@llvm@@QEBA?AV?$ilist_iterator@U?$node_options@VGlobalVariable@llvm@@$00$0A@X$0A@X@ilist_detail@llvm@@$0A@$0A@@2@XZ
	?begin@?$iterator_range@V?$mapped_iterator@PEAU?$pair@PEAVGlobalVariable@llvm@@VStringRef@2@@std@@P6A?AU?$pair@PEAVGlobalVariable@llvm@@V?$basic_string@DU?$char_traits@D@std@@V?$allocator@D@2@@std@@@2@U12@@ZU32@@llvm@@@llvm@@QEBA?AV?$mapped_iterator@PEAU?$pair@PEAVGlobalVariable@llvm@@VStringRef@2@@std@@P6A?AU?$pair@PEAVGlobalVariable@llvm@@V?$basic_string@DU?$char_traits@D@std@@V?$allocator@D@2@@std@@@2@U12@@ZU32@@2@XZ
	?begin@?$iterator_range@V?$user_iterator_impl@VUser@llvm@@@Value@llvm@@@llvm@@QEBA?AV?$user_iterator_impl@VUser@llvm@@@Value@2@XZ
	?begin@?$simple_ilist@VGlobalVariable@llvm@@$$V@llvm@@QEAA?AV?$ilist_iterator@U?$node_options@VGlobalVariable@llvm@@$00$0A@X$0A@X@ilist_detail@llvm@@$0A@$0A@@2@XZ
	?capacity@?$vector@V?$unique_ptr@U?$PassConcept@VModule@llvm@@V?$AnalysisManager@VModule@llvm@@$$V@2@$$V@detail@llvm@@U?$default_delete@U?$PassConcept@VModule@llvm@@V?$AnalysisManager@VModule@llvm@@$$V@2@$$V@detail@llvm@@@std@@@std@@V?$allocator@V?$unique_ptr@U?$PassConcept@VModule@llvm@@V?$AnalysisManager@VModule@llvm@@$$V@2@$$V@detail@llvm@@U?$default_delete@U?$PassConcept@VModule@llvm@@V?$AnalysisManager@VModule@llvm@@$$V@2@$$V@detail@llvm@@@std@@@std@@@2@@std@@QEBA_KXZ
	?castFailed@?$CastInfo@VConstantDataArray@llvm@@PEBVConstant@2@X@llvm@@SAPEBVConstantDataArray@2@XZ
	?castFailed@?$CastInfo@VInstruction@llvm@@PEBVUser@2@X@llvm@@SAPEBVInstruction@2@XZ
	?classof@ConstantDataArray@llvm@@SA_NPEBVValue@2@@Z
	?classof@Instruction@llvm@@SA_NPEBVValue@2@@Z
	?clear@?$SmallVectorImpl@U?$pair@PEAVGlobalVariable@llvm@@VStringRef@2@@std@@@llvm@@QEAAXXZ
	?compareMemory@StringRef@llvm@@CAHPEBD0_K@Z
	?consume_front@StringRef@llvm@@QEAA_NV12@@Z
	?contains@?$DenseMapBase@V?$DenseMap@PEAUAnalysisKey@llvm@@V?$unique_ptr@U?$AnalysisPassConcept@VModule@llvm@@VInvalidator@?$AnalysisManager@VModule@llvm@@$$V@2@$$V@detail@llvm@@U?$default_delete@U?$AnalysisPassConcept@VModule@llvm@@VInvalidator@?$AnalysisManager@VModule@llvm@@$$V@2@$$V@detail@llvm@@@std@@@std@@U?$DenseMapInfo@PEAUAnalysisKey@llvm@@X@2@U?$DenseMapPair@PEAUAnalysisKey@llvm@@V?$unique_ptr@U?$AnalysisPassConcept@VModule@llvm@@VInvalidator@?$AnalysisManager@VModule@llvm@@$$V@2@$$V@detail@llvm@@U?$default_delete@U?$AnalysisPassConcept@VModule@llvm@@VInvalidator@?$AnalysisManager@VModule@llvm@@$$V@2@$$V@detail@llvm@@@std@@@std@@@detail@2@@llvm@@PEAUAnalysisKey@2@V?$unique_ptr@U?$AnalysisPassConcept@VModule@llvm@@VInvalidator@?$AnalysisManager@VModule@llvm@@$$V@2@$$V@detail@llvm@@U?$default_delete@U?$AnalysisPassConcept@VModule@llvm@@VInvalidator@?$AnalysisManager@VModule@llvm@@$$V@2@$$V@detail@llvm@@@std@@@std@@U?$DenseMapInfo@PEAUAnalysisKey@llvm@@X@2@U?$DenseMapPair@PEAUAnalysisKey@llvm@@V?$unique_ptr@U?$AnalysisPassConcept@VModule@llvm@@VInvalidator@?$AnalysisManager@VModule@llvm@@$$V@2@$$V@detail@llvm@@U?$default_delete@U?$AnalysisPassConcept@VModule@llvm@@VInvalidator@?$AnalysisManager@VModule@llvm@@$$V@2@$$V@detail@llvm@@@std@@@std@@@detail@2@@llvm@@QEBA_NPEBUAnalysisKey@2@@Z
	?contains@?$SmallPtrSetImpl@PEAX@llvm@@QEBA_NPEBX@Z
	?contains_imp@SmallPtrSetImplBase@llvm@@IEBA_NPEBX@Z
	?copy@?$_Char_traits@DH@std@@SAPEADQEADQEBD_K@Z
	?count@?$DenseMapBase@V?$DenseMap@PEAUAnalysisKey@llvm@@V?$unique_ptr@U?$AnalysisPassConcept@VModule@llvm@@VInvalidator@?$AnalysisManager@VModule@llvm@@$$V@2@$$V@detail@llvm@@U?$default_delete@U?$AnalysisPassConcept@VModule@llvm@@VInvalidator@?$AnalysisManager@VModule@llvm@@$$V@2@$$V@detail@llvm@@@std@@@std@@U?$DenseMapInfo@PEAUAnalysisKey@llvm@@X@2@U?$DenseMapPair@PEAUAnalysisKey@llvm@@V?$unique_ptr@U?$AnalysisPassConcept@VModule@llvm@@VInvalidator@?$AnalysisManager@VModule@llvm@@$$V@2@$$V@detail@llvm@@U?$default_delete@U?$AnalysisPassConcept@VModule@llvm@@VInvalidator@?$AnalysisManager@VModule@llvm@@$$V@2@$$V@detail@llvm@@@std@@@std@@@detail@2@@llvm@@PEAUAnalysisKey@2@V?$unique_ptr@U?$AnalysisPassConcept@VModule@llvm@@VInvalidator@?$AnalysisManager@VModule@llvm@@$$V@2@$$V@detail@llvm@@U?$default_delete@U?$AnalysisPassConcept@VModule@llvm@@VInvalidator@?$AnalysisManager@VModule@llvm@@$$V@2@$$V@detail@llvm@@@std@@@std@@U?$DenseMapInfo@PEAUAnalysisKey@llvm@@X@2@U?$DenseMapPair@PEAUAnalysisKey@llvm@@V?$unique_ptr@U?$AnalysisPassConcept@VModule@llvm@@VInvalidator@?$AnalysisManager@VModule@llvm@@$$V@2@$$V@detail@llvm@@U?$default_delete@U?$AnalysisPassConcept@VModule@llvm@@VInvalidator@?$AnalysisManager@VModule@llvm@@$$V@2@$$V@detail@llvm@@@std@@@std@@@detail@2@@llvm@@QEBAIPEBUAnalysisKey@2@@Z
	?count@?$SmallPtrSetImpl@PEAUAnalysisKey@llvm@@@llvm@@QEBAIPEBUAnalysisKey@2@@Z
	?count@?$SmallPtrSetImpl@PEAX@llvm@@QEBAIPEBX@Z
	?current_pos@raw_string_ostream@llvm@@EEBA_KXZ
	?data@?$basic_string@DU?$char_traits@D@std@@V?$allocator@D@2@@std@@QEBAPEBDXZ
	?data@?$basic_string_view@DU?$char_traits@D@std@@@std@@QEBAPEBDXZ
	?data@StringRef@llvm@@QEBAPEBDXZ
	?deallocate@?$allocator@D@std@@QEAAXQEAD_K@Z
	?deallocate@?$allocator@V?$unique_ptr@U?$PassConcept@VModule@llvm@@V?$AnalysisManager@VModule@llvm@@$$V@2@$$V@detail@llvm@@U?$default_delete@U?$PassConcept@VModule@llvm@@V?$AnalysisManager@VModule@llvm@@$$V@2@$$V@detail@llvm@@@std@@@std@@@std@@QEAAXQEAV?$unique_ptr@U?$PassConcept@VModule@llvm@@V?$AnalysisManager@VModule@llvm@@$$V@2@$$V@detail@llvm@@U?$default_delete@U?$PassConcept@VModule@llvm@@V?$AnalysisManager@VModule@llvm@@$$V@2@$$V@detail@llvm@@@std@@@2@_K@Z
	?decrementNumTombstones@?$DenseMapBase@V?$DenseMap@PEAUAnalysisKey@llvm@@V?$unique_ptr@U?$AnalysisPassConcept@VModule@llvm@@VInvalidator@?$AnalysisManager@VModule@llvm@@$$V@2@$$V@detail@llvm@@U?$default_delete@U?$AnalysisPassConcept@VModule@llvm@@VInvalidator@?$AnalysisManager@VModule@llvm@@$$V@2@$$V@detail@llvm@@@std@@@std@@U?$DenseMapInfo@PEAUAnalysisKey@llvm@@X@2@U?$DenseMapPair@PEAUAnalysisKey@llvm@@V?$unique_ptr@U?$AnalysisPassConcept@VModule@llvm@@VInvalidator@?$AnalysisManager@VModule@llvm@@$$V@2@$$V@detail@llvm@@U?$default_delete@U?$AnalysisPassConcept@VModule@llvm@@VInvalidator@?$AnalysisManager@VModule@llvm@@$$V@2@$$V@detail@llvm@@@std@@@std@@@detail@2@@llvm@@PEAUAnalysisKey@2@V?$unique_ptr@U?$AnalysisPassConcept@VModule@llvm@@VInvalidator@?$AnalysisManager@VModule@llvm@@$$V@2@$$V@detail@llvm@@U?$default_delete@U?$AnalysisPassConcept@VModule@llvm@@VInvalidator@?$AnalysisManager@VModule@llvm@@$$V@2@$$V@detail@llvm@@@std@@@std@@U?$DenseMapInfo@PEAUAnalysisKey@llvm@@X@2@U?$DenseMapPair@PEAUAnalysisKey@llvm@@V?$unique_ptr@U?$AnalysisPassConcept@VModule@llvm@@VInvalidator@?$AnalysisManager@VModule@llvm@@$$V@2@$$V@detail@llvm@@U?$default_delete@U?$AnalysisPassConcept@VModule@llvm@@VInvalidator@?$AnalysisManager@VModule@llvm@@$$V@2@$$V@detail@llvm@@@std@@@std@@@detail@2@@llvm@@AEAAXXZ
	?decrementNumTombstones@?$DenseMapBase@V?$DenseMap@PEAVGlobalVariable@llvm@@IU?$DenseMapInfo@PEAVGlobalVariable@llvm@@X@2@U?$DenseMapPair@PEAVGlobalVariable@llvm@@I@detail@2@@llvm@@PEAVGlobalVariable@2@IU?$DenseMapInfo@PEAVGlobalVariable@llvm@@X@2@U?$DenseMapPair@PEAVGlobalVariable@llvm@@I@detail@2@@llvm@@AEAAXXZ
	?destroyAll@?$DenseMapBase@V?$DenseMap@PEAVGlobalVariable@llvm@@IU?$DenseMapInfo@PEAVGlobalVariable@llvm@@X@2@U?$DenseMapPair@PEAVGlobalVariable@llvm@@I@detail@2@@llvm@@PEAVGlobalVariable@2@IU?$DenseMapInfo@PEAVGlobalVariable@llvm@@X@2@U?$DenseMapPair@PEAVGlobalVariable@llvm@@I@detail@2@@llvm@@IEAAXXZ
	?destroy_range@?$SmallVectorTemplateBase@U?$pair@PEAVGlobalVariable@llvm@@V?$basic_string@DU?$char_traits@D@std@@V?$allocator@D@2@@std@@@std@@$0A@@llvm@@KAXPEAU?$pair@PEAVGlobalVariable@llvm@@V?$basic_string@DU?$char_traits@D@std@@V?$allocator@D@2@@std@@@std@@0@Z
	?destroy_range@?$SmallVectorTemplateBase@U?$pair@PEAVGlobalVariable@llvm@@VStringRef@2@@std@@$00@llvm@@KAXPEAU?$pair@PEAVGlobalVariable@llvm@@VStringRef@2@@std@@0@Z
	?destroy_range@?$SmallVectorTemplateBase@V?$function@$$A6AXAEAV?$AnalysisManager@VModule@llvm@@$$V@llvm@@@Z@std@@$0A@@llvm@@KAXPEAV?$function@$$A6AXAEAV?$AnalysisManager@VModule@llvm@@$$V@llvm@@@Z@std@@0@Z
	?destroy_range@?$SmallVectorTemplateBase@V?$function@$$A6A_NVStringRef@llvm@@AEAV?$PassManager@VModule@llvm@@V?$AnalysisManager@VModule@llvm@@$$V@2@$$V@2@V?$ArrayRef@UPipelineElement@PassBuilder@llvm@@@2@@Z@std@@$0A@@llvm@@KAXPEAV?$function@$$A6A_NVStringRef@llvm@@AEAV?$PassManager@VModule@llvm@@V?$AnalysisManager@VModule@llvm@@$$V@2@$$V@2@V?$ArrayRef@UPipelineElement@PassBuilder@llvm@@@2@@Z@std@@0@Z
	?doCast@?$CastInfo@VConstantDataArray@llvm@@PEAVConstant@2@X@llvm@@SAPEAVConstantDataArray@2@AEBQEAVConstant@2@@Z
	?doCast@?$CastInfo@VConstantDataArray@llvm@@PEBVConstant@2@X@llvm@@SAPEBVConstantDataArray@2@AEBQEBVConstant@2@@Z
	?doCast@?$CastInfo@VInstruction@llvm@@PEBVUser@2@X@llvm@@SAPEBVInstruction@2@AEBQEBVUser@2@@Z
	?doCastIfPossible@?$CastInfo@VConstantDataArray@llvm@@PEBVConstant@2@X@llvm@@SAPEBVConstantDataArray@2@AEBQEBVConstant@2@@Z
	?doCastIfPossible@?$CastInfo@VInstruction@llvm@@PEBVUser@2@X@llvm@@SAPEBVInstruction@2@AEBQEBVUser@2@@Z
	?doit@?$cast_convert_val@VConstantDataArray@llvm@@PEAVConstant@2@PEAV32@@llvm@@SAPEAVConstantDataArray@2@PEBVConstant@2@@Z
	?doit@?$cast_convert_val@VConstantDataArray@llvm@@PEBVConstant@2@PEBV32@@llvm@@SAPEBVConstantDataArray@2@PEBVConstant@2@@Z
	?doit@?$cast_convert_val@VInstruction@llvm@@PEBVUser@2@PEBV32@@llvm@@SAPEBVInstruction@2@PEBVUser@2@@Z
	?doit@?$isa_impl@VConstantDataArray@llvm@@VConstant@2@X@llvm@@SA_NAEBVConstant@2@@Z
	?doit@?$isa_impl@VInstruction@llvm@@VUser@2@X@llvm@@SA_NAEBVUser@2@@Z
	?doit@?$isa_impl_cl@VConstantDataArray@llvm@@PEBVConstant@2@@llvm@@SA_NPEBVConstant@2@@Z
	?doit@?$isa_impl_cl@VInstruction@llvm@@PEBVUser@2@@llvm@@SA_NPEBVUser@2@@Z
	?doit@?$isa_impl_wrap@VConstantDataArray@llvm@@PEBVConstant@2@PEBV32@@llvm@@SA_NAEBQEBVConstant@2@@Z
	?doit@?$isa_impl_wrap@VConstantDataArray@llvm@@QEBVConstant@2@PEBV32@@llvm@@SA_NAEBQEBVConstant@2@@Z
	?doit@?$isa_impl_wrap@VInstruction@llvm@@PEBVUser@2@PEBV32@@llvm@@SA_NAEBQEBVUser@2@@Z
	?doit@?$isa_impl_wrap@VInstruction@llvm@@QEBVUser@2@PEBV32@@llvm@@SA_NAEBQEBVUser@2@@Z
	?empty@?$basic_string@DU?$char_traits@D@std@@V?$allocator@D@2@@std@@QEBA_NXZ
	?empty@SmallPtrSetImplBase@llvm@@QEBA_NXZ
	?empty@StringRef@llvm@@QEBA_NXZ
	?enable_colors@raw_ostream@llvm@@UEAAX_N@Z
	?end@?$MapVector@PEAVGlobalVariable@llvm@@VStringRef@2@V?$DenseMap@PEAVGlobalVariable@llvm@@IU?$DenseMapInfo@PEAVGlobalVariable@llvm@@X@2@U?$DenseMapPair@PEAVGlobalVariable@llvm@@I@detail@2@@2@V?$SmallVector@U?$pair@PEAVGlobalVariable@llvm@@VStringRef@2@@std@@$0A@@2@@llvm@@QEAAPEAU?$pair@PEAVGlobalVariable@llvm@@VStringRef@2@@std@@XZ
	?end@?$SmallPtrSetImpl@PEAUAnalysisKey@llvm@@@llvm@@QEBA?AV?$SmallPtrSetIterator@PEAUAnalysisKey@llvm@@@2@XZ
	?end@?$SmallVectorTemplateCommon@U?$pair@PEAVGlobalVariable@llvm@@V?$basic_string@DU?$char_traits@D@std@@V?$allocator@D@2@@std@@@std@@X@llvm@@QEAAPEAU?$pair@PEAVGlobalVariable@llvm@@V?$basic_string@DU?$char_traits@D@std@@V?$allocator@D@2@@std@@@std@@XZ
	?end@?$SmallVectorTemplateCommon@U?$pair@PEAVGlobalVariable@llvm@@VStringRef@2@@std@@X@llvm@@QEAAPEAU?$pair@PEAVGlobalVariable@llvm@@VStringRef@2@@std@@XZ
	?end@?$SmallVectorTemplateCommon@U?$pair@PEAVGlobalVariable@llvm@@VStringRef@2@@std@@X@llvm@@QEBAPEBU?$pair@PEAVGlobalVariable@llvm@@VStringRef@2@@std@@XZ
	?end@?$SmallVectorTemplateCommon@V?$function@$$A6AXAEAV?$AnalysisManager@VModule@llvm@@$$V@llvm@@@Z@std@@X@llvm@@QEAAPEAV?$function@$$A6AXAEAV?$AnalysisManager@VModule@llvm@@$$V@llvm@@@Z@std@@XZ
	?end@?$SmallVectorTemplateCommon@V?$function@$$A6AXAEAV?$AnalysisManager@VModule@llvm@@$$V@llvm@@@Z@std@@X@llvm@@QEBAPEBV?$function@$$A6AXAEAV?$AnalysisManager@VModule@llvm@@$$V@llvm@@@Z@std@@XZ
	?end@?$SmallVectorTemplateCommon@V?$function@$$A6A_NVStringRef@llvm@@AEAV?$PassManager@VModule@llvm@@V?$AnalysisManager@VModule@llvm@@$$V@2@$$V@2@V?$ArrayRef@UPipelineElement@PassBuilder@llvm@@@2@@Z@std@@X@llvm@@QEAAPEAV?$function@$$A6A_NVStringRef@llvm@@AEAV?$PassManager@VModule@llvm@@V?$AnalysisManager@VModule@llvm@@$$V@2@$$V@2@V?$ArrayRef@UPipelineElement@PassBuilder@llvm@@@2@@Z@std@@XZ
	?end@?$SmallVectorTemplateCommon@V?$function@$$A6A_NVStringRef@llvm@@AEAV?$PassManager@VModule@llvm@@V?$AnalysisManager@VModule@llvm@@$$V@2@$$V@2@V?$ArrayRef@UPipelineElement@PassBuilder@llvm@@@2@@Z@std@@X@llvm@@QEBAPEBV?$function@$$A6A_NVStringRef@llvm@@AEAV?$PassManager@VModule@llvm@@V?$AnalysisManager@VModule@llvm@@$$V@2@$$V@2@V?$ArrayRef@UPipelineElement@PassBuilder@llvm@@@2@@Z@std@@XZ
	?end@?$basic_string@DU?$char_traits@D@std@@V?$allocator@D@2@@std@@QEAA?AV?$_String_iterator@V?$_String_val@U?$_Simple_types@D@std@@@std@@@2@XZ
	?end@?$iterator_range@V?$filter_iterator_impl@V?$ilist_iterator@U?$node_options@VGlobalVariable@llvm@@$00$0A@X$0A@X@ilist_detail@llvm@@$0A@$0A@@llvm@@P6A_NAEBVGlobalVariable@2@@_EUbidirectional_iterator_tag@std@@@llvm@@@llvm@@QEBA?AV?$filter_iterator_impl@V?$ilist_iterator@U?$node_options@VGlobalVariable@llvm@@$00$0A@X$0A@X@ilist_detail@llvm@@$0A@$0A@@llvm@@P6A_NAEBVGlobalVariable@2@@_EUbidirectional_iterator_tag@std@@@2@XZ
	?end@?$iterator_range@V?$ilist_iterator@U?$node_options@VGlobalVariable@llvm@@$00$0A@X$0A@X@ilist_detail@llvm@@$0A@$0A@@llvm@@@llvm@@QEBA?AV?$ilist_iterator@U?$node_options@VGlobalVariable@llvm@@$00$0A@X$0A@X@ilist_detail@llvm@@$0A@$0A@@2@XZ
	?end@?$iterator_range@V?$mapped_iterator@PEAU?$pair@PEAVGlobalVariable@llvm@@VStringRef@2@@std@@P6A?AU?$pair@PEAVGlobalVariable@llvm@@V?$basic_string@DU?$char_traits@D@std@@V?$allocator@D@2@@std@@@2@U12@@ZU32@@llvm@@@llvm@@QEBA?AV?$mapped_iterator@PEAU?$pair@PEAVGlobalVariable@llvm@@VStringRef@2@@std@@P6A?AU?$pair@PEAVGlobalVariable@llvm@@V?$basic_string@DU?$char_traits@D@std@@V?$allocator@D@2@@std@@@2@U12@@ZU32@@2@XZ
	?end@?$iterator_range@V?$user_iterator_impl@VUser@llvm@@@Value@llvm@@@llvm@@QEBA?AV?$user_iterator_impl@VUser@llvm@@@Value@2@XZ
	?end@?$simple_ilist@VGlobalVariable@llvm@@$$V@llvm@@QEAA?AV?$ilist_iterator@U?$node_options@VGlobalVariable@llvm@@$00$0A@X$0A@X@ilist_detail@llvm@@$0A@$0A@@2@XZ
	?erase@?$SmallPtrSetImpl@PEAX@llvm@@QEAA_NPEAX@Z
	?erase_imp@SmallPtrSetImplBase@llvm@@IEAA_NPEBX@Z
	?fetch_add@?$_Atomic_integral@_K$07@std@@QEAA_K_KW4memory_order@2@@Z
	?findNextValid@?$filter_iterator_base@V?$ilist_iterator@U?$node_options@VGlobalVariable@llvm@@$00$0A@X$0A@X@ilist_detail@llvm@@$0A@$0A@@llvm@@P6A_NAEBVGlobalVariable@2@@_EUbidirectional_iterator_tag@std@@@llvm@@IEAAXXZ
	?flush@raw_ostream@llvm@@QEAAXXZ
	?get@Use@llvm@@QEBAPEAVValue@2@XZ
	?getAsCString@ConstantDataSequential@llvm@@QEBA?AVStringRef@2@XZ
	?getAsString@ConstantDataSequential@llvm@@QEBA?AVStringRef@2@XZ
	?getAsVoidPointer@?$PointerLikeTypeTraits@PEAUAnalysisKey@llvm@@@llvm@@SAPEAXPEAUAnalysisKey@2@@Z
	?getAsVoidPointer@?$PointerLikeTypeTraits@PEAX@llvm@@SAPEAXPEAX@Z
	?getAsVoidPointer@?$PointerLikeTypeTraits@PEBUAnalysisKey@llvm@@@llvm@@SAPEBXPEBUAnalysisKey@2@@Z
	?getAsVoidPointer@?$PointerLikeTypeTraits@PEBX@llvm@@SAPEBXPEBX@Z
	?getBuckets@?$DenseMap@PEAUAnalysisKey@llvm@@V?$unique_ptr@U?$AnalysisPassConcept@VModule@llvm@@VInvalidator@?$AnalysisManager@VModule@llvm@@$$V@2@$$V@detail@llvm@@U?$default_delete@U?$AnalysisPassConcept@VModule@llvm@@VInvalidator@?$AnalysisManager@VModule@llvm@@$$V@2@$$V@detail@llvm@@@std@@@std@@U?$DenseMapInfo@PEAUAnalysisKey@llvm@@X@2@U?$DenseMapPair@PEAUAnalysisKey@llvm@@V?$unique_ptr@U?$AnalysisPassConcept@VModule@llvm@@VInvalidator@?$AnalysisManager@VModule@llvm@@$$V@2@$$V@detail@llvm@@U?$default_delete@U?$AnalysisPassConcept@VModule@llvm@@VInvalidator@?$AnalysisManager@VModule@llvm@@$$V@2@$$V@detail@llvm@@@std@@@std@@@detail@2@@llvm@@AEBAPEAU?$DenseMapPair@PEAUAnalysisKey@llvm@@V?$unique_ptr@U?$AnalysisPassConcept@VModule@llvm@@VInvalidator@?$AnalysisManager@VModule@llvm@@$$V@2@$$V@detail@llvm@@U?$default_delete@U?$AnalysisPassConcept@VModule@llvm@@VInvalidator@?$AnalysisManager@VModule@llvm@@$$V@2@$$V@detail@llvm@@@std@@@std@@@detail@2@XZ
	?getBuckets@?$DenseMap@PEAVGlobalVariable@llvm@@IU?$DenseMapInfo@PEAVGlobalVariable@llvm@@X@2@U?$DenseMapPair@PEAVGlobalVariable@llvm@@I@detail@2@@llvm@@AEBAPEAU?$DenseMapPair@PEAVGlobalVariable@llvm@@I@detail@2@XZ
	?getBuckets@?$DenseMapBase@V?$DenseMap@PEAUAnalysisKey@llvm@@V?$unique_ptr@U?$AnalysisPassConcept@VModule@llvm@@VInvalidator@?$AnalysisManager@VModule@llvm@@$$V@2@$$V@detail@llvm@@U?$default_delete@U?$AnalysisPassConcept@VModule@llvm@@VInvalidator@?$AnalysisManager@VModule@llvm@@$$V@2@$$V@detail@llvm@@@std@@@std@@U?$DenseMapInfo@PEAUAnalysisKey@llvm@@X@2@U?$DenseMapPair@PEAUAnalysisKey@llvm@@V?$unique_ptr@U?$AnalysisPassConcept@VModule@llvm@@VInvalidator@?$AnalysisManager@VModule@llvm@@$$V@2@$$V@detail@llvm@@U?$default_delete@U?$AnalysisPassConcept@VModule@llvm@@VInvalidator@?$AnalysisManager@VModule@llvm@@$$V@2@$$V@detail@llvm@@@std@@@std@@@detail@2@@llvm@@PEAUAnalysisKey@2@V?$unique_ptr@U?$AnalysisPassConcept@VModule@llvm@@VInvalidator@?$AnalysisManager@VModule@llvm@@$$V@2@$$V@detail@llvm@@U?$default_delete@U?$AnalysisPassConcept@VModule@llvm@@VInvalidator@?$AnalysisManager@VModule@llvm@@$$V@2@$$V@detail@llvm@@@std@@@std@@U?$DenseMapInfo@PEAUAnalysisKey@llvm@@X@2@U?$DenseMapPair@PEAUAnalysisKey@llvm@@V?$unique_ptr@U?$AnalysisPassConcept@VModule@llvm@@VInvalidator@?$AnalysisManager@VModule@llvm@@$$V@2@$$V@detail@llvm@@U?$default_delete@U?$AnalysisPassConcept@VModule@llvm@@VInvalidator@?$AnalysisManager@VModule@llvm@@$$V@2@$$V@detail@llvm@@@std@@@std@@@detail@2@@llvm@@AEAAPEAU?$DenseMapPair@PEAUAnalysisKey@llvm@@V?$unique_ptr@U?$AnalysisPassConcept@VModule@llvm@@VInvalidator@?$AnalysisManager@VModule@llvm@@$$V@2@$$V@detail@llvm@@U?$default_delete@U?$AnalysisPassConcept@VModule@llvm@@VInvalidator@?$AnalysisManager@VModule@llvm@@$$V@2@$$V@detail@llvm@@@std@@@std@@@detail@2@XZ
	?getBuckets@?$DenseMapBase@V?$DenseMap@PEAVGlobalVariable@llvm@@IU?$DenseMapInfo@PEAVGlobalVariable@llvm@@X@2@U?$DenseMapPair@PEAVGlobalVariable@llvm@@I@detail@2@@llvm@@PEAVGlobalVariable@2@IU?$DenseMapInfo@PEAVGlobalVariable@llvm@@X@2@U?$DenseMapPair@PEAVGlobalVariable@llvm@@I@detail@2@@llvm@@AEAAPEAU?$DenseMapPair@PEAVGlobalVariable@llvm@@I@detail@2@XZ
	?getBucketsEnd@?$DenseMapBase@V?$DenseMap@PEAUAnalysisKey@llvm@@V?$unique_ptr@U?$AnalysisPassConcept@VModule@llvm@@VInvalidator@?$AnalysisManager@VModule@llvm@@$$V@2@$$V@detail@llvm@@U?$default_delete@U?$AnalysisPassConcept@VModule@llvm@@VInvalidator@?$AnalysisManager@VModule@llvm@@$$V@2@$$V@detail@llvm@@@std@@@std@@U?$DenseMapInfo@PEAUAnalysisKey@llvm@@X@2@U?$DenseMapPair@PEAUAnalysisKey@llvm@@V?$unique_ptr@U?$AnalysisPassConcept@VModule@llvm@@VInvalidator@?$AnalysisManager@VModule@llvm@@$$V@2@$$V@detail@llvm@@U?$default_delete@U?$AnalysisPassConcept@VModule@llvm@@VInvalidator@?$AnalysisManager@VModule@llvm@@$$V@2@$$V@detail@llvm@@@std@@@std@@@detail@2@@llvm@@PEAUAnalysisKey@2@V?$unique_ptr@U?$AnalysisPassConcept@VModule@llvm@@VInvalidator@?$AnalysisManager@VModule@llvm@@$$V@2@$$V@detail@llvm@@U?$default_delete@U?$AnalysisPassConcept@VModule@llvm@@VInvalidator@?$AnalysisManager@VModule@llvm@@$$V@2@$$V@detail@llvm@@@std@@@std@@U?$DenseMapInfo@PEAUAnalysisKey@llvm@@X@2@U?$DenseMapPair@PEAUAnalysisKey@llvm@@V?$unique_ptr@U?$AnalysisPassConcept@VModule@llvm@@VInvalidator@?$AnalysisManager@VModule@llvm@@$$V@2@$$V@detail@llvm@@U?$default_delete@U?$AnalysisPassConcept@VModule@llvm@@VInvalidator@?$AnalysisManager@VModule@llvm@@$$V@2@$$V@detail@llvm@@@std@@@std@@@detail@2@@llvm@@AEAAPEAU?$DenseMapPair@PEAUAnalysisKey@llvm@@V?$unique_ptr@U?$AnalysisPassConcept@VModule@llvm@@VInvalidator@?$AnalysisManager@VModule@llvm@@$$V@2@$$V@detail@llvm@@U?$default_delete@U?$AnalysisPassConcept@VModule@llvm@@VInvalidator@?$AnalysisManager@VModule@llvm@@$$V@2@$$V@detail@llvm@@@std@@@std@@@detail@2@XZ
	?getBucketsEnd@?$DenseMapBase@V?$DenseMap@PEAVGlobalVariable@llvm@@IU?$DenseMapInfo@PEAVGlobalVariable@llvm@@X@2@U?$DenseMapPair@PEAVGlobalVariable@llvm@@I@detail@2@@llvm@@PEAVGlobalVariable@2@IU?$DenseMapInfo@PEAVGlobalVariable@llvm@@X@2@U?$DenseMapPair@PEAVGlobalVariable@llvm@@I@detail@2@@llvm@@AEAAPEAU?$DenseMapPair@PEAVGlobalVariable@llvm@@I@detail@2@XZ
	?getContext@Module@llvm@@QEBAAEAVLLVMContext@2@XZ
	?getEmptyKey@?$DenseMapBase@V?$DenseMap@PEAUAnalysisKey@llvm@@V?$unique_ptr@U?$AnalysisPassConcept@VModule@llvm@@VInvalidator@?$AnalysisManager@VModule@llvm@@$$V@2@$$V@detail@llvm@@U?$default_delete@U?$AnalysisPassConcept@VModule@llvm@@VInvalidator@?$AnalysisManager@VModule@llvm@@$$V@2@$$V@detail@llvm@@@std@@@std@@U?$DenseMapInfo@PEAUAnalysisKey@llvm@@X@2@U?$DenseMapPair@PEAUAnalysisKey@llvm@@V?$unique_ptr@U?$AnalysisPassConcept@VModule@llvm@@VInvalidator@?$AnalysisManager@VModule@llvm@@$$V@2@$$V@detail@llvm@@U?$default_delete@U?$AnalysisPassConcept@VModule@llvm@@VInvalidator@?$AnalysisManager@VModule@llvm@@$$V@2@$$V@detail@llvm@@@std@@@std@@@detail@2@@llvm@@PEAUAnalysisKey@2@V?$unique_ptr@U?$AnalysisPassConcept@VModule@llvm@@VInvalidator@?$AnalysisManager@VModule@llvm@@$$V@2@$$V@detail@llvm@@U?$default_delete@U?$AnalysisPassConcept@VModule@llvm@@VInvalidator@?$AnalysisManager@VModule@llvm@@$$V@2@$$V@detail@llvm@@@std@@@std@@U?$DenseMapInfo@PEAUAnalysisKey@llvm@@X@2@U?$DenseMapPair@PEAUAnalysisKey@llvm@@V?$unique_ptr@U?$AnalysisPassConcept@VModule@llvm@@VInvalidator@?$AnalysisManager@VModule@llvm@@$$V@2@$$V@detail@llvm@@U?$default_delete@U?$AnalysisPassConcept@VModule@llvm@@VInvalidator@?$AnalysisManager@VModule@llvm@@$$V@2@$$V@detail@llvm@@@std@@@std@@@detail@2@@llvm@@KAQEAUAnalysisKey@2@XZ
	?getEmptyKey@?$DenseMapBase@V?$DenseMap@PEAVGlobalVariable@llvm@@IU?$DenseMapInfo@PEAVGlobalVariable@llvm@@X@2@U?$DenseMapPair@PEAVGlobalVariable@llvm@@I@detail@2@@llvm@@PEAVGlobalVariable@2@IU?$DenseMapInfo@PEAVGlobalVariable@llvm@@X@2@U?$DenseMapPair@PEAVGlobalVariable@llvm@@I@detail@2@@llvm@@KAQEAVGlobalVariable@2@XZ
	?getEmptyKey@?$DenseMapInfo@PEAUAnalysisKey@llvm@@X@llvm@@SAPEAUAnalysisKey@2@XZ
	?getEmptyKey@?$DenseMapInfo@PEAVGlobalVariable@llvm@@X@llvm@@SAPEAVGlobalVariable@2@XZ
	?getEmptyMarker@SmallPtrSetImplBase@llvm@@KAPEAXXZ
	?getFirst@?$DenseMapPair@PEAUAnalysisKey@llvm@@V?$unique_ptr@U?$AnalysisPassConcept@VModule@llvm@@VInvalidator@?$AnalysisManager@VModule@llvm@@$$V@2@$$V@detail@llvm@@U?$default_delete@U?$AnalysisPassConcept@VModule@llvm@@VInvalidator@?$AnalysisManager@VModule@llvm@@$$V@2@$$V@detail@llvm@@@std@@@std@@@detail@llvm@@QEAAAEAPEAUAnalysisKey@3@XZ
	?getFirst@?$DenseMapPair@PEAVGlobalVariable@llvm@@I@detail@llvm@@QEAAAEAPEAVGlobalVariable@3@XZ
	?getFirstEl@?$SmallVectorTemplateCommon@U?$pair@PEAVGlobalVariable@llvm@@V?$basic_string@DU?$char_traits@D@std@@V?$allocator@D@2@@std@@@std@@X@llvm@@IEBAPEAXXZ
	?getFirstEl@?$SmallVectorTemplateCommon@U?$pair@PEAVGlobalVariable@llvm@@VStringRef@2@@std@@X@llvm@@IEBAPEAXXZ
	?getFirstEl@?$SmallVectorTemplateCommon@V?$function@$$A6AXAEAV?$AnalysisManager@VModule@llvm@@$$V@llvm@@@Z@std@@X@llvm@@IEBAPEAXXZ
	?getFirstEl@?$SmallVectorTemplateCommon@V?$function@$$A6A_NVStringRef@llvm@@AEAV?$PassManager@VModule@llvm@@V?$AnalysisManager@VModule@llvm@@$$V@2@$$V@2@V?$ArrayRef@UPipelineElement@PassBuilder@llvm@@@2@@Z@std@@X@llvm@@IEBAPEAXXZ
	?getFromVoidPointer@?$PointerLikeTypeTraits@PEAUAnalysisKey@llvm@@@llvm@@SAPEAUAnalysisKey@2@PEAX@Z
	?getFromVoidPointer@?$PointerLikeTypeTraits@PEAX@llvm@@SAPEAXPEAX@Z
	?getHashValue@?$DenseMapBase@V?$DenseMap@PEAUAnalysisKey@llvm@@V?$unique_ptr@U?$AnalysisPassConcept@VModule@llvm@@VInvalidator@?$AnalysisManager@VModule@llvm@@$$V@2@$$V@detail@llvm@@U?$default_delete@U?$AnalysisPassConcept@VModule@llvm@@VInvalidator@?$AnalysisManager@VModule@llvm@@$$V@2@$$V@detail@llvm@@@std@@@std@@U?$DenseMapInfo@PEAUAnalysisKey@llvm@@X@2@U?$DenseMapPair@PEAUAnalysisKey@llvm@@V?$unique_ptr@U?$AnalysisPassConcept@VModule@llvm@@VInvalidator@?$AnalysisManager@VModule@llvm@@$$V@2@$$V@detail@llvm@@U?$default_delete@U?$AnalysisPassConcept@VModule@llvm@@VInvalidator@?$AnalysisManager@VModule@llvm@@$$V@2@$$V@detail@llvm@@@std@@@std@@@detail@2@@llvm@@PEAUAnalysisKey@2@V?$unique_ptr@U?$AnalysisPassConcept@VModule@llvm@@VInvalidator@?$AnalysisManager@VModule@llvm@@$$V@2@$$V@detail@llvm@@U?$default_delete@U?$AnalysisPassConcept@VModule@llvm@@VInvalidator@?$AnalysisManager@VModule@llvm@@$$V@2@$$V@detail@llvm@@@std@@@std@@U?$DenseMapInfo@PEAUAnalysisKey@llvm@@X@2@U?$DenseMapPair@PEAUAnalysisKey@llvm@@V?$unique_ptr@U?$AnalysisPassConcept@VModule@llvm@@VInvalidator@?$AnalysisManager@VModule@llvm@@$$V@2@$$V@detail@llvm@@U?$default_delete@U?$AnalysisPassConcept@VModule@llvm@@VInvalidator@?$AnalysisManager@VModule@llvm@@$$V@2@$$V@detail@llvm@@@std@@@std@@@detail@2@@llvm@@KAIAEBQEAUAnalysisKey@2@@Z
	?getHashValue@?$DenseMapBase@V?$DenseMap@PEAVGlobalVariable@llvm@@IU?$DenseMapInfo@PEAVGlobalVariable@llvm@@X@2@U?$DenseMapPair@PEAVGlobalVariable@llvm@@I@detail@2@@llvm@@PEAVGlobalVariable@2@IU?$DenseMapInfo@PEAVGlobalVariable@llvm@@X@2@U?$DenseMapPair@PEAVGlobalVariable@llvm@@I@detail@2@@llvm@@KAIAEBQEAVGlobalVariable@2@@Z
	?getHashValue@?$DenseMapInfo@PEAUAnalysisKey@llvm@@X@llvm@@SAIPEBUAnalysisKey@2@@Z
	?getHashValue@?$DenseMapInfo@PEAVGlobalVariable@llvm@@X@llvm@@SAIPEBVGlobalVariable@2@@Z
	?getInitializer@GlobalVariable@llvm@@QEAAPEAVConstant@2@XZ
	?getInitializer@GlobalVariable@llvm@@QEBAPEBVConstant@2@XZ
	?getInt@?$PointerIntPair@PEAV?$ilist_node_base@$00X@llvm@@$00IU?$PointerLikeTypeTraits@PEAV?$ilist_node_base@$00X@llvm@@@2@U?$PointerIntPairInfo@PEAV?$ilist_node_base@$00X@llvm@@$00U?$PointerLikeTypeTraits@PEAV?$ilist_node_base@$00X@llvm@@@2@@2@@llvm@@QEBAIXZ
	?getInt@?$PointerIntPairInfo@PEAV?$ilist_node_base@$00X@llvm@@$00U?$PointerLikeTypeTraits@PEAV?$ilist_node_base@$00X@llvm@@@2@@llvm@@SA_J_J@Z
	?getMinBucketToReserveForEntries@?$DenseMapBase@V?$DenseMap@PEAVGlobalVariable@llvm@@IU?$DenseMapInfo@PEAVGlobalVariable@llvm@@X@2@U?$DenseMapPair@PEAVGlobalVariable@llvm@@I@detail@2@@llvm@@PEAVGlobalVariable@2@IU?$DenseMapInfo@PEAVGlobalVariable@llvm@@X@2@U?$DenseMapPair@PEAVGlobalVariable@llvm@@I@detail@2@@llvm@@IEAAII@Z
	?getNext@?$ilist_node_impl@U?$node_options@VGlobalVariable@llvm@@$00$0A@X$0A@X@ilist_detail@llvm@@@llvm@@AEAAPEAV12@XZ
	?getNext@?$node_base_prevnext@V?$ilist_node_base@$00X@llvm@@$00@ilist_detail@llvm@@QEBAPEAV?$ilist_node_base@$00X@3@XZ
	?getNext@Use@llvm@@QEBAPEAV12@XZ
	?getNumBuckets@?$DenseMap@PEAUAnalysisKey@llvm@@V?$unique_ptr@U?$AnalysisPassConcept@VModule@llvm@@VInvalidator@?$AnalysisManager@VModule@llvm@@$$V@2@$$V@detail@llvm@@U?$default_delete@U?$AnalysisPassConcept@VModule@llvm@@VInvalidator@?$AnalysisManager@VModule@llvm@@$$V@2@$$V@detail@llvm@@@std@@@std@@U?$DenseMapInfo@PEAUAnalysisKey@llvm@@X@2@U?$DenseMapPair@PEAUAnalysisKey@llvm@@V?$unique_ptr@U?$AnalysisPassConcept@VModule@llvm@@VInvalidator@?$AnalysisManager@VModule@llvm@@$$V@2@$$V@detail@llvm@@U?$default_delete@U?$AnalysisPassConcept@VModule@llvm@@VInvalidator@?$AnalysisManager@VModule@llvm@@$$V@2@$$V@detail@llvm@@@std@@@std@@@detail@2@@llvm@@AEBAIXZ
	?getNumBuckets@?$DenseMap@PEAVGlobalVariable@llvm@@IU?$DenseMapInfo@PEAVGlobalVariable@llvm@@X@2@U?$DenseMapPair@PEAVGlobalVariable@llvm@@I@detail@2@@llvm@@AEBAIXZ
	?getNumBuckets@?$DenseMapBase@V?$DenseMap@PEAUAnalysisKey@llvm@@V?$unique_ptr@U?$AnalysisPassConcept@VModule@llvm@@VInvalidator@?$AnalysisManager@VModule@llvm@@$$V@2@$$V@detail@llvm@@U?$default_delete@U?$AnalysisPassConcept@VModule@llvm@@VInvalidator@?$AnalysisManager@VModule@llvm@@$$V@2@$$V@detail@llvm@@@std@@@std@@U?$DenseMapInfo@PEAUAnalysisKey@llvm@@X@2@U?$DenseMapPair@PEAUAnalysisKey@llvm@@V?$unique_ptr@U?$AnalysisPassConcept@VModule@llvm@@VInvalidator@?$AnalysisManager@VModule@llvm@@$$V@2@$$V@detail@llvm@@U?$default_delete@U?$AnalysisPassConcept@VModule@llvm@@VInvalidator@?$AnalysisManager@VModule@llvm@@$$V@2@$$V@detail@llvm@@@std@@@std@@@detail@2@@llvm@@PEAUAnalysisKey@2@V?$unique_ptr@U?$AnalysisPassConcept@VModule@llvm@@VInvalidator@?$AnalysisManager@VModule@llvm@@$$V@2@$$V@detail@llvm@@U?$default_delete@U?$AnalysisPassConcept@VModule@llvm@@VInvalidator@?$AnalysisManager@VModule@llvm@@$$V@2@$$V@detail@llvm@@@std@@@std@@U?$DenseMapInfo@PEAUAnalysisKey@llvm@@X@2@U?$DenseMapPair@PEAUAnalysisKey@llvm@@V?$unique_ptr@U?$AnalysisPassConcept@VModule@llvm@@VInvalidator@?$AnalysisManager@VModule@llvm@@$$V@2@$$V@detail@llvm@@U?$default_delete@U?$AnalysisPassConcept@VModule@llvm@@VInvalidator@?$AnalysisManager@VModule@llvm@@$$V@2@$$V@detail@llvm@@@std@@@std@@@detail@2@@llvm@@AEBAIXZ
	?getNumBuckets@?$DenseMapBase@V?$DenseMap@PEAVGlobalVariable@llvm@@IU?$DenseMapInfo@PEAVGlobalVariable@llvm@@X@2@U?$DenseMapPair@PEAVGlobalVariable@llvm@@I@detail@2@@llvm@@PEAVGlobalVariable@2@IU?$DenseMapInfo@PEAVGlobalVariable@llvm@@X@2@U?$DenseMapPair@PEAVGlobalVariable@llvm@@I@detail@2@@llvm@@AEBAIXZ
	?getNumEntries@?$DenseMap@PEAUAnalysisKey@llvm@@V?$unique_ptr@U?$AnalysisPassConcept@VModule@llvm@@VInvalidator@?$AnalysisManager@VModule@llvm@@$$V@2@$$V@detail@llvm@@U?$default_delete@U?$AnalysisPassConcept@VModule@llvm@@VInvalidator@?$AnalysisManager@VModule@llvm@@$$V@2@$$V@detail@llvm@@@std@@@std@@U?$DenseMapInfo@PEAUAnalysisKey@llvm@@X@2@U?$DenseMapPair@PEAUAnalysisKey@llvm@@V?$unique_ptr@U?$AnalysisPassConcept@VModule@llvm@@VInvalidator@?$AnalysisManager@VModule@llvm@@$$V@2@$$V@detail@llvm@@U?$default_delete@U?$AnalysisPassConcept@VModule@llvm@@VInvalidator@?$AnalysisManager@VModule@llvm@@$$V@2@$$V@detail@llvm@@@std@@@std@@@detail@2@@llvm@@AEBAIXZ
	?getNumEntries@?$DenseMap@PEAVGlobalVariable@llvm@@IU?$DenseMapInfo@PEAVGlobalVariable@llvm@@X@2@U?$DenseMapPair@PEAVGlobalVariable@llvm@@I@detail@2@@llvm@@AEBAIXZ
	?getNumEntries@?$DenseMapBase@V?$DenseMap@PEAUAnalysisKey@llvm@@V?$unique_ptr@U?$AnalysisPassConcept@VModule@llvm@@VInvalidator@?$AnalysisManager@VModule@llvm@@$$V@2@$$V@detail@llvm@@U?$default_delete@U?$AnalysisPassConcept@VModule@llvm@@VInvalidator@?$AnalysisManager@VModule@llvm@@$$V@2@$$V@detail@llvm@@@std@@@std@@U?$DenseMapInfo@PEAUAnalysisKey@llvm@@X@2@U?$DenseMapPair@PEAUAnalysisKey@llvm@@V?$unique_ptr@U?$AnalysisPassConcept@VModule@llvm@@VInvalidator@?$AnalysisManager@VModule@llvm@@$$V@2@$$V@detail@llvm@@U?$default_delete@U?$AnalysisPassConcept@VModule@llvm@@VInvalidator@?$AnalysisManager@VModule@llvm@@$$V@2@$$V@detail@llvm@@@std@@@std@@@detail@2@@llvm@@PEAUAnalysisKey@2@V?$unique_ptr@U?$AnalysisPassConcept@VModule@llvm@@VInvalidator@?$AnalysisManager@VModule@llvm@@$$V@2@$$V@detail@llvm@@U?$default_delete@U?$AnalysisPassConcept@VModule@llvm@@VInvalidator@?$AnalysisManager@VModule@llvm@@$$V@2@$$V@detail@llvm@@@std@@@std@@U?$DenseMapInfo@PEAUAnalysisKey@llvm@@X@2@U?$DenseMapPair@PEAUAnalysisKey@llvm@@V?$unique_ptr@U?$AnalysisPassConcept@VModule@llvm@@VInvalidator@?$AnalysisManager@VModule@llvm@@$$V@2@$$V@detail@llvm@@U?$default_delete@U?$AnalysisPassConcept@VModule@llvm@@VInvalidator@?$AnalysisManager@VModule@llvm@@$$V@2@$$V@detail@llvm@@@std@@@std@@@detail@2@@llvm@@AEBAIXZ
	?getNumEntries@?$DenseMapBase@V?$DenseMap@PEAVGlobalVariable@llvm@@IU?$DenseMapInfo@PEAVGlobalVariable@llvm@@X@2@U?$DenseMapPair@PEAVGlobalVariable@llvm@@I@detail@2@@llvm@@PEAVGlobalVariable@2@IU?$DenseMapInfo@PEAVGlobalVariable@llvm@@X@2@U?$DenseMapPair@PEAVGlobalVariable@llvm@@I@detail@2@@llvm@@AEBAIXZ
	?getNumTombstones@?$DenseMap@PEAUAnalysisKey@llvm@@V?$unique_ptr@U?$AnalysisPassConcept@VModule@llvm@@VInvalidator@?$AnalysisManager@VModule@llvm@@$$V@2@$$V@detail@llvm@@U?$default_delete@U?$AnalysisPassConcept@VModule@llvm@@VInvalidator@?$AnalysisManager@VModule@llvm@@$$V@2@$$V@detail@llvm@@@std@@@std@@U?$DenseMapInfo@PEAUAnalysisKey@llvm@@X@2@U?$DenseMapPair@PEAUAnalysisKey@llvm@@V?$unique_ptr@U?$AnalysisPassConcept@VModule@llvm@@VInvalidator@?$AnalysisManager@VModule@llvm@@$$V@2@$$V@detail@llvm@@U?$default_delete@U?$AnalysisPassConcept@VModule@llvm@@VInvalidator@?$AnalysisManager@VModule@llvm@@$$V@2@$$V@detail@llvm@@@std@@@std@@@detail@2@@llvm@@AEBAIXZ
	?getNumTombstones@?$DenseMap@PEAVGlobalVariable@llvm@@IU?$DenseMapInfo@PEAVGlobalVariable@llvm@@X@2@U?$DenseMapPair@PEAVGlobalVariable@llvm@@I@detail@2@@llvm@@AEBAIXZ
	?getNumTombstones@?$DenseMapBase@V?$DenseMap@PEAUAnalysisKey@llvm@@V?$unique_ptr@U?$AnalysisPassConcept@VModule@llvm@@VInvalidator@?$AnalysisManager@VModule@llvm@@$$V@2@$$V@detail@llvm@@U?$default_delete@U?$AnalysisPassConcept@VModule@llvm@@VInvalidator@?$AnalysisManager@VModule@llvm@@$$V@2@$$V@detail@llvm@@@std@@@std@@U?$DenseMapInfo@PEAUAnalysisKey@llvm@@X@2@U?$DenseMapPair@PEAUAnalysisKey@llvm@@V?$unique_ptr@U?$AnalysisPassConcept@VModule@llvm@@VInvalidator@?$AnalysisManager@VModule@llvm@@$$V@2@$$V@detail@llvm@@U?$default_delete@U?$AnalysisPassConcept@VModule@llvm@@VInvalidator@?$AnalysisManager@VModule@llvm@@$$V@2@$$V@detail@llvm@@@std@@@std@@@detail@2@@llvm@@PEAUAnalysisKey@2@V?$unique_ptr@U?$AnalysisPassConcept@VModule@llvm@@VInvalidator@?$AnalysisManager@VModule@llvm@@$$V@2@$$V@detail@llvm@@U?$default_delete@U?$AnalysisPassConcept@VModule@llvm@@VInvalidator@?$AnalysisManager@VModule@llvm@@$$V@2@$$V@detail@llvm@@@std@@@std@@U?$DenseMapInfo@PEAUAnalysisKey@llvm@@X@2@U?$DenseMapPair@PEAUAnalysisKey@llvm@@V?$unique_ptr@U?$AnalysisPassConcept@VModule@llvm@@VInvalidator@?$AnalysisManager@VModule@llvm@@$$V@2@$$V@detail@llvm@@U?$default_delete@U?$AnalysisPassConcept@VModule@llvm@@VInvalidator@?$AnalysisManager@VModule@llvm@@$$V@2@$$V@detail@llvm@@@std@@@std@@@detail@2@@llvm@@AEBAIXZ
	?getNumTombstones@?$DenseMapBase@V?$DenseMap@PEAVGlobalVariable@llvm@@IU?$DenseMapInfo@PEAVGlobalVariable@llvm@@X@2@U?$DenseMapPair@PEAVGlobalVariable@llvm@@I@detail@2@@llvm@@PEAVGlobalVariable@2@IU?$DenseMapInfo@PEAVGlobalVariable@llvm@@X@2@U?$DenseMapPair@PEAVGlobalVariable@llvm@@I@detail@2@@llvm@@AEBAIXZ
	?getParent@GlobalValue@llvm@@QEAAPEAVModule@2@XZ
	?getSecond@?$DenseMapPair@PEAUAnalysisKey@llvm@@V?$unique_ptr@U?$AnalysisPassConcept@VModule@llvm@@VInvalidator@?$AnalysisManager@VModule@llvm@@$$V@2@$$V@detail@llvm@@U?$default_delete@U?$AnalysisPassConcept@VModule@llvm@@VInvalidator@?$AnalysisManager@VModule@llvm@@$$V@2@$$V@detail@llvm@@@std@@@std@@@detail@llvm@@QEAAAEAV?$unique_ptr@U?$AnalysisPassConcept@VModule@llvm@@VInvalidator@?$AnalysisManager@VModule@llvm@@$$V@2@$$V@detail@llvm@@U?$default_delete@U?$AnalysisPassConcept@VModule@llvm@@VInvalidator@?$AnalysisManager@VModule@llvm@@$$V@2@$$V@detail@llvm@@@std@@@std@@XZ
	?getSecond@?$DenseMapPair@PEAVGlobalVariable@llvm@@I@detail@llvm@@QEAAAEAIXZ
	?getSimplifiedValue@?$simplify_type@PEAVConstant@llvm@@@llvm@@SAAEAPEAVConstant@2@AEAPEAV32@@Z
	?getSimplifiedValue@?$simplify_type@PEBVConstant@llvm@@@llvm@@SAAEAPEBVConstant@2@AEAPEBV32@@Z
	?getSimplifiedValue@?$simplify_type@PEBVUser@llvm@@@llvm@@SAAEAPEBVUser@2@AEAPEBV32@@Z
	?getSimplifiedValue@?$simplify_type@QEAVConstant@llvm@@@llvm@@SAPEBVConstant@2@AEBQEAV32@@Z
	?getSimplifiedValue@?$simplify_type@QEBVConstant@llvm@@@llvm@@SAPEBVConstant@2@AEBQEBV32@@Z
	?getSimplifiedValue@?$simplify_type@QEBVUser@llvm@@@llvm@@SAPEBVUser@2@AEBQEBV32@@Z
	?getTombstoneKey@?$DenseMapBase@V?$DenseMap@PEAUAnalysisKey@llvm@@V?$unique_ptr@U?$AnalysisPassConcept@VModule@llvm@@VInvalidator@?$AnalysisManager@VModule@llvm@@$$V@2@$$V@detail@llvm@@U?$default_delete@U?$AnalysisPassConcept@VModule@llvm@@VInvalidator@?$AnalysisManager@VModule@llvm@@$$V@2@$$V@detail@llvm@@@std@@@std@@U?$DenseMapInfo@PEAUAnalysisKey@llvm@@X@2@U?$DenseMapPair@PEAUAnalysisKey@llvm@@V?$unique_ptr@U?$AnalysisPassConcept@VModule@llvm@@VInvalidator@?$AnalysisManager@VModule@llvm@@$$V@2@$$V@detail@llvm@@U?$default_delete@U?$AnalysisPassConcept@VModule@llvm@@VInvalidator@?$AnalysisManager@VModule@llvm@@$$V@2@$$V@detail@llvm@@@std@@@std@@@detail@2@@llvm@@PEAUAnalysisKey@2@V?$unique_ptr@U?$AnalysisPassConcept@VModule@llvm@@VInvalidator@?$AnalysisManager@VModule@llvm@@$$V@2@$$V@detail@llvm@@U?$default_delete@U?$AnalysisPassConcept@VModule@llvm@@VInvalidator@?$AnalysisManager@VModule@llvm@@$$V@2@$$V@detail@llvm@@@std@@@std@@U?$DenseMapInfo@PEAUAnalysisKey@llvm@@X@2@U?$DenseMapPair@PEAUAnalysisKey@llvm@@V?$unique_ptr@U?$AnalysisPassConcept@VModule@llvm@@VInvalidator@?$AnalysisManager@VModule@llvm@@$$V@2@$$V@detail@llvm@@U?$default_delete@U?$AnalysisPassConcept@VModule@llvm@@VInvalidator@?$AnalysisManager@VModule@llvm@@$$V@2@$$V@detail@llvm@@@std@@@std@@@detail@2@@llvm@@KAQEAUAnalysisKey@2@XZ
	?getTombstoneKey@?$DenseMapBase@V?$DenseMap@PEAVGlobalVariable@llvm@@IU?$DenseMapInfo@PEAVGlobalVariable@llvm@@X@2@U?$DenseMapPair@PEAVGlobalVariable@llvm@@I@detail@2@@llvm@@PEAVGlobalVariable@2@IU?$DenseMapInfo@PEAVGlobalVariable@llvm@@X@2@U?$DenseMapPair@PEAVGlobalVariable@llvm@@I@detail@2@@llvm@@KAQEAVGlobalVariable@2@XZ
	?getTombstoneKey@?$DenseMapInfo@PEAUAnalysisKey@llvm@@X@llvm@@SAPEAUAnalysisKey@2@XZ
	?getTombstoneKey@?$DenseMapInfo@PEAVGlobalVariable@llvm@@X@llvm@@SAPEAVGlobalVariable@2@XZ
	?getTombstoneMarker@SmallPtrSetImplBase@llvm@@KAPEAXXZ
	?getUser@Use@llvm@@QEBAPEAVUser@2@XZ
	?getValueID@Value@llvm@@QEBAIXZ
	?getValuePtr@?$SpecificNodeAccess@U?$node_options@VGlobalVariable@llvm@@$00$0A@X$0A@X@ilist_detail@llvm@@@ilist_detail@llvm@@KAPEAVGlobalVariable@3@PEAV?$ilist_node_impl@U?$node_options@VGlobalVariable@llvm@@$00$0A@X$0A@X@ilist_detail@llvm@@@3@@Z
	?get_deleter@?$unique_ptr@U?$AnalysisPassConcept@VModule@llvm@@VInvalidator@?$AnalysisManager@VModule@llvm@@$$V@2@$$V@detail@llvm@@U?$default_delete@U?$AnalysisPassConcept@VModule@llvm@@VInvalidator@?$AnalysisManager@VModule@llvm@@$$V@2@$$V@detail@llvm@@@std@@@std@@QEAAAEAU?$default_delete@U?$AnalysisPassConcept@VModule@llvm@@VInvalidator@?$AnalysisManager@VModule@llvm@@$$V@2@$$V@detail@llvm@@@2@XZ
	?get_deleter@?$unique_ptr@U?$AnalysisResultModel@VModule@llvm@@VPassInstrumentationAnalysis@2@VPassInstrumentation@2@VInvalidator@?$AnalysisManager@VModule@llvm@@$$V@2@$00@detail@llvm@@U?$default_delete@U?$AnalysisResultModel@VModule@llvm@@VPassInstrumentationAnalysis@2@VPassInstrumentation@2@VInvalidator@?$AnalysisManager@VModule@llvm@@$$V@2@$00@detail@llvm@@@std@@@std@@QEAAAEAU?$default_delete@U?$AnalysisResultModel@VModule@llvm@@VPassInstrumentationAnalysis@2@VPassInstrumentation@2@VInvalidator@?$AnalysisManager@VModule@llvm@@$$V@2@$00@detail@llvm@@@2@XZ
	?get_deleter@?$unique_ptr@U?$AnalysisResultModel@VModule@llvm@@VStringAnalyzer@jvs@@V?$MapVector@PEAVGlobalVariable@llvm@@VStringRef@2@V?$DenseMap@PEAVGlobalVariable@llvm@@IU?$DenseMapInfo@PEAVGlobalVariable@llvm@@X@2@U?$DenseMapPair@PEAVGlobalVariable@llvm@@I@detail@2@@2@V?$SmallVector@U?$pair@PEAVGlobalVariable@llvm@@VStringRef@2@@std@@$0A@@2@@2@VInvalidator@?$AnalysisManager@VModule@llvm@@$$V@2@$0A@@detail@llvm@@U?$default_delete@U?$AnalysisResultModel@VModule@llvm@@VStringAnalyzer@jvs@@V?$MapVector@PEAVGlobalVariable@llvm@@VStringRef@2@V?$DenseMap@PEAVGlobalVariable@llvm@@IU?$DenseMapInfo@PEAVGlobalVariable@llvm@@X@2@U?$DenseMapPair@PEAVGlobalVariable@llvm@@I@detail@2@@2@V?$SmallVector@U?$pair@PEAVGlobalVariable@llvm@@VStringRef@2@@std@@$0A@@2@@2@VInvalidator@?$AnalysisManager@VModule@llvm@@$$V@2@$0A@@detail@llvm@@@std@@@std@@QEAAAEAU?$default_delete@U?$AnalysisResultModel@VModule@llvm@@VStringAnalyzer@jvs@@V?$MapVector@PEAVGlobalVariable@llvm@@VStringRef@2@V?$DenseMap@PEAVGlobalVariable@llvm@@IU?$DenseMapInfo@PEAVGlobalVariable@llvm@@X@2@U?$DenseMapPair@PEAVGlobalVariable@llvm@@I@detail@2@@2@V?$SmallVector@U?$pair@PEAVGlobalVariable@llvm@@VStringRef@2@@std@@$0A@@2@@2@VInvalidator@?$AnalysisManager@VModule@llvm@@$$V@2@$0A@@detail@llvm@@@2@XZ
	?get_deleter@?$unique_ptr@U?$PassConcept@VModule@llvm@@V?$AnalysisManager@VModule@llvm@@$$V@2@$$V@detail@llvm@@U?$default_delete@U?$PassConcept@VModule@llvm@@V?$AnalysisManager@VModule@llvm@@$$V@2@$$V@detail@llvm@@@std@@@std@@QEAAAEAU?$default_delete@U?$PassConcept@VModule@llvm@@V?$AnalysisManager@VModule@llvm@@$$V@2@$$V@detail@llvm@@@2@XZ
	?global_begin@Module@llvm@@QEAA?AV?$ilist_iterator@U?$node_options@VGlobalVariable@llvm@@$00$0A@X$0A@X@ilist_detail@llvm@@$0A@$0A@@2@XZ
	?global_end@Module@llvm@@QEAA?AV?$ilist_iterator@U?$node_options@VGlobalVariable@llvm@@$00$0A@X$0A@X@ilist_detail@llvm@@$0A@$0A@@2@XZ
	?globals@Module@llvm@@QEAA?AV?$iterator_range@V?$ilist_iterator@U?$node_options@VGlobalVariable@llvm@@$00$0A@X$0A@X@ilist_detail@llvm@@$0A@$0A@@llvm@@@2@XZ
	?grow@?$DenseMap@PEAUAnalysisKey@llvm@@V?$unique_ptr@U?$AnalysisPassConcept@VModule@llvm@@VInvalidator@?$AnalysisManager@VModule@llvm@@$$V@2@$$V@detail@llvm@@U?$default_delete@U?$AnalysisPassConcept@VModule@llvm@@VInvalidator@?$AnalysisManager@VModule@llvm@@$$V@2@$$V@detail@llvm@@@std@@@std@@U?$DenseMapInfo@PEAUAnalysisKey@llvm@@X@2@U?$DenseMapPair@PEAUAnalysisKey@llvm@@V?$unique_ptr@U?$AnalysisPassConcept@VModule@llvm@@VInvalidator@?$AnalysisManager@VModule@llvm@@$$V@2@$$V@detail@llvm@@U?$default_delete@U?$AnalysisPassConcept@VModule@llvm@@VInvalidator@?$AnalysisManager@VModule@llvm@@$$V@2@$$V@detail@llvm@@@std@@@std@@@detail@2@@llvm@@QEAAXI@Z
	?grow@?$DenseMap@PEAVGlobalVariable@llvm@@IU?$DenseMapInfo@PEAVGlobalVariable@llvm@@X@2@U?$DenseMapPair@PEAVGlobalVariable@llvm@@I@detail@2@@llvm@@QEAAXI@Z
	?grow@?$DenseMapBase@V?$DenseMap@PEAUAnalysisKey@llvm@@V?$unique_ptr@U?$AnalysisPassConcept@VModule@llvm@@VInvalidator@?$AnalysisManager@VModule@llvm@@$$V@2@$$V@detail@llvm@@U?$default_delete@U?$AnalysisPassConcept@VModule@llvm@@VInvalidator@?$AnalysisManager@VModule@llvm@@$$V@2@$$V@detail@llvm@@@std@@@std@@U?$DenseMapInfo@PEAUAnalysisKey@llvm@@X@2@U?$DenseMapPair@PEAUAnalysisKey@llvm@@V?$unique_ptr@U?$AnalysisPassConcept@VModule@llvm@@VInvalidator@?$AnalysisManager@VModule@llvm@@$$V@2@$$V@detail@llvm@@U?$default_delete@U?$AnalysisPassConcept@VModule@llvm@@VInvalidator@?$AnalysisManager@VModule@llvm@@$$V@2@$$V@detail@llvm@@@std@@@std@@@detail@2@@llvm@@PEAUAnalysisKey@2@V?$unique_ptr@U?$AnalysisPassConcept@VModule@llvm@@VInvalidator@?$AnalysisManager@VModule@llvm@@$$V@2@$$V@detail@llvm@@U?$default_delete@U?$AnalysisPassConcept@VModule@llvm@@VInvalidator@?$AnalysisManager@VModule@llvm@@$$V@2@$$V@detail@llvm@@@std@@@std@@U?$DenseMapInfo@PEAUAnalysisKey@llvm@@X@2@U?$DenseMapPair@PEAUAnalysisKey@llvm@@V?$unique_ptr@U?$AnalysisPassConcept@VModule@llvm@@VInvalidator@?$AnalysisManager@VModule@llvm@@$$V@2@$$V@detail@llvm@@U?$default_delete@U?$AnalysisPassConcept@VModule@llvm@@VInvalidator@?$AnalysisManager@VModule@llvm@@$$V@2@$$V@detail@llvm@@@std@@@std@@@detail@2@@llvm@@AEAAXI@Z
	?grow@?$DenseMapBase@V?$DenseMap@PEAVGlobalVariable@llvm@@IU?$DenseMapInfo@PEAVGlobalVariable@llvm@@X@2@U?$DenseMapPair@PEAVGlobalVariable@llvm@@I@detail@2@@llvm@@PEAVGlobalVariable@2@IU?$DenseMapInfo@PEAVGlobalVariable@llvm@@X@2@U?$DenseMapPair@PEAVGlobalVariable@llvm@@I@detail@2@@llvm@@AEAAXI@Z
	?grow@?$SmallVectorTemplateBase@U?$pair@PEAVGlobalVariable@llvm@@V?$basic_string@DU?$char_traits@D@std@@V?$allocator@D@2@@std@@@std@@$0A@@llvm@@IEAAX_K@Z
	?grow@?$SmallVectorTemplateBase@U?$pair@PEAVGlobalVariable@llvm@@VStringRef@2@@std@@$00@llvm@@IEAAX_K@Z
	?grow@?$SmallVectorTemplateBase@V?$function@$$A6AXAEAV?$AnalysisManager@VModule@llvm@@$$V@llvm@@@Z@std@@$0A@@llvm@@IEAAX_K@Z
	?grow@?$SmallVectorTemplateBase@V?$function@$$A6A_NVStringRef@llvm@@AEAV?$PassManager@VModule@llvm@@V?$AnalysisManager@VModule@llvm@@$$V@2@$$V@2@V?$ArrayRef@UPipelineElement@PassBuilder@llvm@@@2@@Z@std@@$0A@@llvm@@IEAAX_K@Z
	?grow_pod@?$SmallVectorTemplateCommon@U?$pair@PEAVGlobalVariable@llvm@@VStringRef@2@@std@@X@llvm@@IEAAX_K0@Z
	?hasAttribute@GlobalVariable@llvm@@QEBA_NW4AttrKind@Attribute@2@@Z
	?hasInitializer@GlobalVariable@llvm@@QEBA_NXZ
	?has_colors@raw_ostream@llvm@@UEBA_NXZ
	?incrementEpoch@DebugEpochBase@llvm@@QEAAXXZ
	?incrementNumEntries@?$DenseMapBase@V?$DenseMap@PEAUAnalysisKey@llvm@@V?$unique_ptr@U?$AnalysisPassConcept@VModule@llvm@@VInvalidator@?$AnalysisManager@VModule@llvm@@$$V@2@$$V@detail@llvm@@U?$default_delete@U?$AnalysisPassConcept@VModule@llvm@@VInvalidator@?$AnalysisManager@VModule@llvm@@$$V@2@$$V@detail@llvm@@@std@@@std@@U?$DenseMapInfo@PEAUAnalysisKey@llvm@@X@2@U?$DenseMapPair@PEAUAnalysisKey@llvm@@V?$unique_ptr@U?$AnalysisPassConcept@VModule@llvm@@VInvalidator@?$AnalysisManager@VModule@llvm@@$$V@2@$$V@detail@llvm@@U?$default_delete@U?$AnalysisPassConcept@VModule@llvm@@VInvalidator@?$AnalysisManager@VModule@llvm@@$$V@2@$$V@detail@llvm@@@std@@@std@@@detail@2@@llvm@@PEAUAnalysisKey@2@V?$unique_ptr@U?$AnalysisPassConcept@VModule@llvm@@VInvalidator@?$AnalysisManager@VModule@llvm@@$$V@2@$$V@detail@llvm@@U?$default_delete@U?$AnalysisPassConcept@VModule@llvm@@VInvalidator@?$AnalysisManager@VModule@llvm@@$$V@2@$$V@detail@llvm@@@std@@@std@@U?$DenseMapInfo@PEAUAnalysisKey@llvm@@X@2@U?$DenseMapPair@PEAUAnalysisKey@llvm@@V?$unique_ptr@U?$AnalysisPassConcept@VModule@llvm@@VInvalidator@?$AnalysisManager@VModule@llvm@@$$V@2@$$V@detail@llvm@@U?$default_delete@U?$AnalysisPassConcept@VModule@llvm@@VInvalidator@?$AnalysisManager@VModule@llvm@@$$V@2@$$V@detail@llvm@@@std@@@std@@@detail@2@@llvm@@AEAAXXZ
	?incrementNumEntries@?$DenseMapBase@V?$DenseMap@PEAVGlobalVariable@llvm@@IU?$DenseMapInfo@PEAVGlobalVariable@llvm@@X@2@U?$DenseMapPair@PEAVGlobalVariable@llvm@@I@detail@2@@llvm@@PEAVGlobalVariable@2@IU?$DenseMapInfo@PEAVGlobalVariable@llvm@@X@2@U?$DenseMapPair@PEAVGlobalVariable@llvm@@I@detail@2@@llvm@@AEAAXXZ
	?init@?$DenseMap@PEAVGlobalVariable@llvm@@IU?$DenseMapInfo@PEAVGlobalVariable@llvm@@X@2@U?$DenseMapPair@PEAVGlobalVariable@llvm@@I@detail@2@@llvm@@QEAAXI@Z
	?init@TrackingStatistic@llvm@@IEAAAEAV12@XZ
	?initEmpty@?$DenseMapBase@V?$DenseMap@PEAUAnalysisKey@llvm@@V?$unique_ptr@U?$AnalysisPassConcept@VModule@llvm@@VInvalidator@?$AnalysisManager@VModule@llvm@@$$V@2@$$V@detail@llvm@@U?$default_delete@U?$AnalysisPassConcept@VModule@llvm@@VInvalidator@?$AnalysisManager@VModule@llvm@@$$V@2@$$V@detail@llvm@@@std@@@std@@U?$DenseMapInfo@PEAUAnalysisKey@llvm@@X@2@U?$DenseMapPair@PEAUAnalysisKey@llvm@@V?$unique_ptr@U?$AnalysisPassConcept@VModule@llvm@@VInvalidator@?$AnalysisManager@VModule@llvm@@$$V@2@$$V@detail@llvm@@U?$default_delete@U?$AnalysisPassConcept@VModule@llvm@@VInvalidator@?$AnalysisManager@VModule@llvm@@$$V@2@$$V@detail@llvm@@@std@@@std@@@detail@2@@llvm@@PEAUAnalysisKey@2@V?$unique_ptr@U?$AnalysisPassConcept@VModule@llvm@@VInvalidator@?$AnalysisManager@VModule@llvm@@$$V@2@$$V@detail@llvm@@U?$default_delete@U?$AnalysisPassConcept@VModule@llvm@@VInvalidator@?$AnalysisManager@VModule@llvm@@$$V@2@$$V@detail@llvm@@@std@@@std@@U?$DenseMapInfo@PEAUAnalysisKey@llvm@@X@2@U?$DenseMapPair@PEAUAnalysisKey@llvm@@V?$unique_ptr@U?$AnalysisPassConcept@VModule@llvm@@VInvalidator@?$AnalysisManager@VModule@llvm@@$$V@2@$$V@detail@llvm@@U?$default_delete@U?$AnalysisPassConcept@VModule@llvm@@VInvalidator@?$AnalysisManager@VModule@llvm@@$$V@2@$$V@detail@llvm@@@std@@@std@@@detail@2@@llvm@@IEAAXXZ
	?initEmpty@?$DenseMapBase@V?$DenseMap@PEAVGlobalVariable@llvm@@IU?$DenseMapInfo@PEAVGlobalVariable@llvm@@X@2@U?$DenseMapPair@PEAVGlobalVariable@llvm@@I@detail@2@@llvm@@PEAVGlobalVariable@2@IU?$DenseMapInfo@PEAVGlobalVariable@llvm@@X@2@U?$DenseMapPair@PEAVGlobalVariable@llvm@@I@detail@2@@llvm@@IEAAXXZ
	?insert@?$DenseMapBase@V?$DenseMap@PEAVGlobalVariable@llvm@@IU?$DenseMapInfo@PEAVGlobalVariable@llvm@@X@2@U?$DenseMapPair@PEAVGlobalVariable@llvm@@I@detail@2@@llvm@@PEAVGlobalVariable@2@IU?$DenseMapInfo@PEAVGlobalVariable@llvm@@X@2@U?$DenseMapPair@PEAVGlobalVariable@llvm@@I@detail@2@@llvm@@QEAA?AU?$pair@V?$DenseMapIterator@PEAVGlobalVariable@llvm@@IU?$DenseMapInfo@PEAVGlobalVariable@llvm@@X@2@U?$DenseMapPair@PEAVGlobalVariable@llvm@@I@detail@2@$0A@@llvm@@_N@std@@$$QEAU?$pair@PEAVGlobalVariable@llvm@@I@4@@Z
	?insert@?$MapVector@PEAVGlobalVariable@llvm@@VStringRef@2@V?$DenseMap@PEAVGlobalVariable@llvm@@IU?$DenseMapInfo@PEAVGlobalVariable@llvm@@X@2@U?$DenseMapPair@PEAVGlobalVariable@llvm@@I@detail@2@@2@V?$SmallVector@U?$pair@PEAVGlobalVariable@llvm@@VStringRef@2@@std@@$0A@@2@@llvm@@QEAA?AU?$pair@PEAU?$pair@PEAVGlobalVariable@llvm@@VStringRef@2@@std@@_N@std@@$$QEAU?$pair@PEAVGlobalVariable@llvm@@VStringRef@2@@4@@Z
	?insert@?$SmallPtrSetImpl@PEAUAnalysisKey@llvm@@@llvm@@QEAA?AU?$pair@V?$SmallPtrSetIterator@PEAUAnalysisKey@llvm@@@llvm@@_N@std@@PEAUAnalysisKey@2@@Z
	?insert@?$SmallPtrSetImpl@PEAX@llvm@@QEAA?AU?$pair@V?$SmallPtrSetIterator@PEAX@llvm@@_N@std@@PEAX@Z
	?insert_imp@SmallPtrSetImplBase@llvm@@IEAA?AU?$pair@PEBQEBX_N@std@@PEBX@Z
	?intersect@PreservedAnalyses@llvm@@QEAAX$$QEAV12@@Z
	?invalidate@?$AnalysisResultModel@VModule@llvm@@VPassInstrumentationAnalysis@2@VPassInstrumentation@2@VInvalidator@?$AnalysisManager@VModule@llvm@@$$V@2@$00@detail@llvm@@UEAA_NAEAVModule@3@AEBVPreservedAnalyses@3@AEAVInvalidator@?$AnalysisManager@VModule@llvm@@$$V@3@@Z
	?invalidate@?$AnalysisResultModel@VModule@llvm@@VStringAnalyzer@jvs@@V?$MapVector@PEAVGlobalVariable@llvm@@VStringRef@2@V?$DenseMap@PEAVGlobalVariable@llvm@@IU?$DenseMapInfo@PEAVGlobalVariable@llvm@@X@2@U?$DenseMapPair@PEAVGlobalVariable@llvm@@I@detail@2@@2@V?$SmallVector@U?$pair@PEAVGlobalVariable@llvm@@VStringRef@2@@std@@$0A@@2@@2@VInvalidator@?$AnalysisManager@VModule@llvm@@$$V@2@$0A@@detail@llvm@@UEAA_NAEAVModule@3@AEBVPreservedAnalyses@3@AEAVInvalidator@?$AnalysisManager@VModule@llvm@@$$V@3@@Z
	?isConstant@GlobalVariable@llvm@@QEBA_NXZ
	?isEqual@?$DenseMapInfo@PEAUAnalysisKey@llvm@@X@llvm@@SA_NPEBUAnalysisKey@2@0@Z
	?isEqual@?$DenseMapInfo@PEAVGlobalVariable@llvm@@X@llvm@@SA_NPEBVGlobalVariable@2@0@Z
	?isHandleInSync@HandleBase@DebugEpochBase@llvm@@QEBA_NXZ
	?isKnownSentinel@?$node_base_prevnext@V?$ilist_node_base@$00X@llvm@@$00@ilist_detail@llvm@@QEBA_NXZ
	?isPossible@?$CastInfo@VConstantDataArray@llvm@@QEAVConstant@2@X@llvm@@SA_NAEBQEAVConstant@2@@Z
	?isPossible@?$CastIsPossible@VConstantDataArray@llvm@@PEBVConstant@2@X@llvm@@SA_NAEBQEBVConstant@2@@Z
	?isPossible@?$CastIsPossible@VInstruction@llvm@@PEBVUser@2@X@llvm@@SA_NAEBQEBVUser@2@@Z
	?isPresent@?$ValueIsPresent@PEBVConstant@llvm@@X@llvm@@SA_NAEBQEBVConstant@2@@Z
	?isPresent@?$ValueIsPresent@PEBVUser@llvm@@X@llvm@@SA_NAEBQEBVUser@2@@Z
	?isReferenceToRange@?$SmallVectorTemplateCommon@U?$pair@PEAVGlobalVariable@llvm@@VStringRef@2@@std@@X@llvm@@IEBA_NPEBX00@Z
	?isReferenceToRange@?$SmallVectorTemplateCommon@V?$function@$$A6AXAEAV?$AnalysisManager@VModule@llvm@@$$V@llvm@@@Z@std@@X@llvm@@IEBA_NPEBX00@Z
	?isReferenceToRange@?$SmallVectorTemplateCommon@V?$function@$$A6A_NVStringRef@llvm@@AEAV?$PassManager@VModule@llvm@@V?$AnalysisManager@VModule@llvm@@$$V@2@$$V@2@V?$ArrayRef@UPipelineElement@PassBuilder@llvm@@@2@@Z@std@@X@llvm@@IEBA_NPEBX00@Z
	?isReferenceToStorage@?$SmallVectorTemplateCommon@U?$pair@PEAVGlobalVariable@llvm@@VStringRef@2@@std@@X@llvm@@IEBA_NPEBX@Z
	?isReferenceToStorage@?$SmallVectorTemplateCommon@V?$function@$$A6AXAEAV?$AnalysisManager@VModule@llvm@@$$V@llvm@@@Z@std@@X@llvm@@IEBA_NPEBX@Z
	?isReferenceToStorage@?$SmallVectorTemplateCommon@V?$function@$$A6A_NVStringRef@llvm@@AEAV?$PassManager@VModule@llvm@@V?$AnalysisManager@VModule@llvm@@$$V@2@$$V@2@V?$ArrayRef@UPipelineElement@PassBuilder@llvm@@@2@@Z@std@@X@llvm@@IEBA_NPEBX@Z
	?isRequired@?$PassModel@VModule@llvm@@VStringAnalyzerPrinter@jvs@@V?$AnalysisManager@VModule@llvm@@$$V@2@$$V@detail@llvm@@UEBA_NXZ
	?isRequired@?$PassModel@VModule@llvm@@VStringReverser@jvs@@V?$AnalysisManager@VModule@llvm@@$$V@2@$$V@detail@llvm@@UEBA_NXZ
	?isSentinel@?$node_base_prevnext@V?$ilist_node_base@$00X@llvm@@$00@ilist_detail@llvm@@QEBA_NXZ
	?isSmall@?$SmallVectorTemplateCommon@U?$pair@PEAVGlobalVariable@llvm@@V?$basic_string@DU?$char_traits@D@std@@V?$allocator@D@2@@std@@@std@@X@llvm@@IEBA_NXZ
	?isSmall@?$SmallVectorTemplateCommon@U?$pair@PEAVGlobalVariable@llvm@@VStringRef@2@@std@@X@llvm@@IEBA_NXZ
	?isSmall@?$SmallVectorTemplateCommon@V?$function@$$A6AXAEAV?$AnalysisManager@VModule@llvm@@$$V@llvm@@@Z@std@@X@llvm@@IEBA_NXZ
	?isSmall@?$SmallVectorTemplateCommon@V?$function@$$A6A_NVStringRef@llvm@@AEAV?$PassManager@VModule@llvm@@V?$AnalysisManager@VModule@llvm@@$$V@2@$$V@2@V?$ArrayRef@UPipelineElement@PassBuilder@llvm@@@2@@Z@std@@X@llvm@@IEBA_NXZ
	?isSmall@SmallPtrSetImplBase@llvm@@IEBA_NXZ
	?is_displayed@raw_ostream@llvm@@UEBA_NXZ
	?length@?$_Narrow_char_traits@DH@std@@SA_KQEBD@Z
	?length@?$basic_string@DU?$char_traits@D@std@@V?$allocator@D@2@@std@@QEBA_KXZ
	?load@?$_Atomic_storage@_N$00@std@@QEBA_NW4memory_order@2@@Z
	?makeIterator@?$DenseMapBase@V?$DenseMap@PEAVGlobalVariable@llvm@@IU?$DenseMapInfo@PEAVGlobalVariable@llvm@@X@2@U?$DenseMapPair@PEAVGlobalVariable@llvm@@I@detail@2@@llvm@@PEAVGlobalVariable@2@IU?$DenseMapInfo@PEAVGlobalVariable@llvm@@X@2@U?$DenseMapPair@PEAVGlobalVariable@llvm@@I@detail@2@@llvm@@AEAA?AV?$DenseMapIterator@PEAVGlobalVariable@llvm@@IU?$DenseMapInfo@PEAVGlobalVariable@llvm@@X@2@U?$DenseMapPair@PEAVGlobalVariable@llvm@@I@detail@2@$0A@@2@PEAU?$DenseMapPair@PEAVGlobalVariable@llvm@@I@detail@2@0AEAVDebugEpochBase@2@_N@Z
	?makeIterator@?$SmallPtrSetImpl@PEAUAnalysisKey@llvm@@@llvm@@AEBA?AV?$SmallPtrSetIterator@PEAUAnalysisKey@llvm@@@2@PEBQEBX@Z
	?makeIterator@?$SmallPtrSetImpl@PEAX@llvm@@AEBA?AV?$SmallPtrSetIterator@PEAX@2@PEBQEBX@Z
	?mallocForGrow@?$SmallVectorTemplateBase@U?$pair@PEAVGlobalVariable@llvm@@V?$basic_string@DU?$char_traits@D@std@@V?$allocator@D@2@@std@@@std@@$0A@@llvm@@IEAAPEAU?$pair@PEAVGlobalVariable@llvm@@V?$basic_string@DU?$char_traits@D@std@@V?$allocator@D@2@@std@@@std@@_KAEA_K@Z
	?mallocForGrow@?$SmallVectorTemplateBase@V?$function@$$A6AXAEAV?$AnalysisManager@VModule@llvm@@$$V@llvm@@@Z@std@@$0A@@llvm@@IEAAPEAV?$function@$$A6AXAEAV?$AnalysisManager@VModule@llvm@@$$V@llvm@@@Z@std@@_KAEA_K@Z
	?mallocForGrow@?$SmallVectorTemplateBase@V?$function@$$A6A_NVStringRef@llvm@@AEAV?$PassManager@VModule@llvm@@V?$AnalysisManager@VModule@llvm@@$$V@2@$$V@2@V?$ArrayRef@UPipelineElement@PassBuilder@llvm@@@2@@Z@std@@$0A@@llvm@@IEAAPEAV?$function@$$A6A_NVStringRef@llvm@@AEAV?$PassManager@VModule@llvm@@V?$AnalysisManager@VModule@llvm@@$$V@2@$$V@2@V?$ArrayRef@UPipelineElement@PassBuilder@llvm@@@2@@Z@std@@_KAEA_K@Z
	?materialized_user_begin@Value@llvm@@QEAA?AV?$user_iterator_impl@VUser@llvm@@@12@XZ
	?materialized_users@Value@llvm@@QEAA?AV?$iterator_range@V?$user_iterator_impl@VUser@llvm@@@Value@llvm@@@2@XZ
	?max_size@?$_Default_allocator_traits@V?$allocator@D@std@@@std@@SA_KAEBV?$allocator@D@2@@Z
	?max_size@?$_Default_allocator_traits@V?$allocator@V?$unique_ptr@U?$PassConcept@VModule@llvm@@V?$AnalysisManager@VModule@llvm@@$$V@2@$$V@detail@llvm@@U?$default_delete@U?$PassConcept@VModule@llvm@@V?$AnalysisManager@VModule@llvm@@$$V@2@$$V@detail@llvm@@@std@@@std@@@std@@@std@@SA_KAEBV?$allocator@V?$unique_ptr@U?$PassConcept@VModule@llvm@@V?$AnalysisManager@VModule@llvm@@$$V@2@$$V@detail@llvm@@U?$default_delete@U?$PassConcept@VModule@llvm@@V?$AnalysisManager@VModule@llvm@@$$V@2@$$V@detail@llvm@@@std@@@std@@@2@@Z
	?max_size@?$basic_string@DU?$char_traits@D@std@@V?$allocator@D@2@@std@@QEBA_KXZ
	?max_size@?$vector@V?$unique_ptr@U?$PassConcept@VModule@llvm@@V?$AnalysisManager@VModule@llvm@@$$V@2@$$V@detail@llvm@@U?$default_delete@U?$PassConcept@VModule@llvm@@V?$AnalysisManager@VModule@llvm@@$$V@2@$$V@detail@llvm@@@std@@@std@@V?$allocator@V?$unique_ptr@U?$PassConcept@VModule@llvm@@V?$AnalysisManager@VModule@llvm@@$$V@2@$$V@detail@llvm@@U?$default_delete@U?$PassConcept@VModule@llvm@@V?$AnalysisManager@VModule@llvm@@$$V@2@$$V@detail@llvm@@@std@@@std@@@2@@std@@QEBA_KXZ
	?moveElementsForGrow@?$SmallVectorTemplateBase@U?$pair@PEAVGlobalVariable@llvm@@V?$basic_string@DU?$char_traits@D@std@@V?$allocator@D@2@@std@@@std@@$0A@@llvm@@IEAAXPEAU?$pair@PEAVGlobalVariable@llvm@@V?$basic_string@DU?$char_traits@D@std@@V?$allocator@D@2@@std@@@std@@@Z
	?moveElementsForGrow@?$SmallVectorTemplateBase@V?$function@$$A6AXAEAV?$AnalysisManager@VModule@llvm@@$$V@llvm@@@Z@std@@$0A@@llvm@@IEAAXPEAV?$function@$$A6AXAEAV?$AnalysisManager@VModule@llvm@@$$V@llvm@@@Z@std@@@Z
	?moveElementsForGrow@?$SmallVectorTemplateBase@V?$function@$$A6A_NVStringRef@llvm@@AEAV?$PassManager@VModule@llvm@@V?$AnalysisManager@VModule@llvm@@$$V@2@$$V@2@V?$ArrayRef@UPipelineElement@PassBuilder@llvm@@@2@@Z@std@@$0A@@llvm@@IEAAXPEAV?$function@$$A6A_NVStringRef@llvm@@AEAV?$PassManager@VModule@llvm@@V?$AnalysisManager@VModule@llvm@@$$V@2@$$V@2@V?$ArrayRef@UPipelineElement@PassBuilder@llvm@@@2@@Z@std@@@Z
	?moveFromOldBuckets@?$DenseMapBase@V?$DenseMap@PEAUAnalysisKey@llvm@@V?$unique_ptr@U?$AnalysisPassConcept@VModule@llvm@@VInvalidator@?$AnalysisManager@VModule@llvm@@$$V@2@$$V@detail@llvm@@U?$default_delete@U?$AnalysisPassConcept@VModule@llvm@@VInvalidator@?$AnalysisManager@VModule@llvm@@$$V@2@$$V@detail@llvm@@@std@@@std@@U?$DenseMapInfo@PEAUAnalysisKey@llvm@@X@2@U?$DenseMapPair@PEAUAnalysisKey@llvm@@V?$unique_ptr@U?$AnalysisPassConcept@VModule@llvm@@VInvalidator@?$AnalysisManager@VModule@llvm@@$$V@2@$$V@detail@llvm@@U?$default_delete@U?$AnalysisPassConcept@VModule@llvm@@VInvalidator@?$AnalysisManager@VModule@llvm@@$$V@2@$$V@detail@llvm@@@std@@@std@@@detail@2@@llvm@@PEAUAnalysisKey@2@V?$unique_ptr@U?$AnalysisPassConcept@VModule@llvm@@VInvalidator@?$AnalysisManager@VModule@llvm@@$$V@2@$$V@detail@llvm@@U?$default_delete@U?$AnalysisPassConcept@VModule@llvm@@VInvalidator@?$AnalysisManager@VModule@llvm@@$$V@2@$$V@detail@llvm@@@std@@@std@@U?$DenseMapInfo@PEAUAnalysisKey@llvm@@X@2@U?$DenseMapPair@PEAUAnalysisKey@llvm@@V?$unique_ptr@U?$AnalysisPassConcept@VModule@llvm@@VInvalidator@?$AnalysisManager@VModule@llvm@@$$V@2@$$V@detail@llvm@@U?$default_delete@U?$AnalysisPassConcept@VModule@llvm@@VInvalidator@?$AnalysisManager@VModule@llvm@@$$V@2@$$V@detail@llvm@@@std@@@std@@@detail@2@@llvm@@IEAAXPEAU?$DenseMapPair@PEAUAnalysisKey@llvm@@V?$unique_ptr@U?$AnalysisPassConcept@VModule@llvm@@VInvalidator@?$AnalysisManager@VModule@llvm@@$$V@2@$$V@detail@llvm@@U?$default_delete@U?$AnalysisPassConcept@VModule@llvm@@VInvalidator@?$AnalysisManager@VModule@llvm@@$$V@2@$$V@detail@llvm@@@std@@@std@@@detail@2@0@Z
	?moveFromOldBuckets@?$DenseMapBase@V?$DenseMap@PEAVGlobalVariable@llvm@@IU?$DenseMapInfo@PEAVGlobalVariable@llvm@@X@2@U?$DenseMapPair@PEAVGlobalVariable@llvm@@I@detail@2@@llvm@@PEAVGlobalVariable@2@IU?$DenseMapInfo@PEAVGlobalVariable@llvm@@X@2@U?$DenseMapPair@PEAVGlobalVariable@llvm@@I@detail@2@@llvm@@IEAAXPEAU?$DenseMapPair@PEAVGlobalVariable@llvm@@I@detail@2@0@Z
	?name@?$AnalysisPassModel@VModule@llvm@@VPassInstrumentationAnalysis@2@VInvalidator@?$AnalysisManager@VModule@llvm@@$$V@2@$$V@detail@llvm@@UEBA?AVStringRef@3@XZ
	?name@?$AnalysisPassModel@VModule@llvm@@VStringAnalyzer@jvs@@VInvalidator@?$AnalysisManager@VModule@llvm@@$$V@2@$$V@detail@llvm@@UEBA?AVStringRef@3@XZ
	?name@?$PassInfoMixin@VPassInstrumentationAnalysis@llvm@@@llvm@@SA?AVStringRef@2@XZ
	?name@?$PassModel@VModule@llvm@@VStringAnalyzerPrinter@jvs@@V?$AnalysisManager@VModule@llvm@@$$V@2@$$V@detail@llvm@@UEBA?AVStringRef@3@XZ
	?name@?$PassModel@VModule@llvm@@VStringReverser@jvs@@V?$AnalysisManager@VModule@llvm@@$$V@2@$$V@detail@llvm@@UEBA?AVStringRef@3@XZ
	?name@StringAnalyzer@jvs@@SA?AVStringRef@llvm@@XZ
	?name@StringAnalyzerPrinter@jvs@@SA?AVStringRef@llvm@@XZ
	?name@StringReverser@jvs@@SA?AVStringRef@llvm@@XZ
	?op_begin@?$FixedNumOperandTraits@VGlobalVariable@llvm@@$00@llvm@@SAPEAVUse@2@PEAVGlobalVariable@2@@Z
	?pop_back@?$SmallVectorTemplateBase@U?$pair@PEAVGlobalVariable@llvm@@V?$basic_string@DU?$char_traits@D@std@@V?$allocator@D@2@@std@@@std@@$0A@@llvm@@QEAAXXZ
	?pop_back_val@?$SmallVectorImpl@U?$pair@PEAVGlobalVariable@llvm@@V?$basic_string@DU?$char_traits@D@std@@V?$allocator@D@2@@std@@@std@@@llvm@@QEAA?AU?$pair@PEAVGlobalVariable@llvm@@V?$basic_string@DU?$char_traits@D@std@@V?$allocator@D@2@@std@@@std@@XZ
	?preserveSet@PreservedAnalyses@llvm@@QEAAAEAV12@PEAUAnalysisSetKey@2@@Z
	?preserved@PreservedAnalysisChecker@PreservedAnalyses@llvm@@QEAA_NXZ
	?printPipeline@?$PassInfoMixin@VStringAnalyzerPrinter@jvs@@@llvm@@QEAAXAEAVraw_ostream@2@V?$function_ref@$$A6A?AVStringRef@llvm@@V12@@Z@2@@Z
	?printPipeline@?$PassInfoMixin@VStringReverser@jvs@@@llvm@@QEAAXAEAVraw_ostream@2@V?$function_ref@$$A6A?AVStringRef@llvm@@V12@@Z@2@@Z
	?printPipeline@?$PassModel@VModule@llvm@@VStringAnalyzerPrinter@jvs@@V?$AnalysisManager@VModule@llvm@@$$V@2@$$V@detail@llvm@@UEAAXAEAVraw_ostream@3@V?$function_ref@$$A6A?AVStringRef@llvm@@V12@@Z@3@@Z
	?printPipeline@?$PassModel@VModule@llvm@@VStringReverser@jvs@@V?$AnalysisManager@VModule@llvm@@$$V@2@$$V@detail@llvm@@UEAAXAEAVraw_ostream@3@V?$function_ref@$$A6A?AVStringRef@llvm@@V12@@Z@3@@Z
	?push_back@?$SmallVectorTemplateBase@U?$pair@PEAVGlobalVariable@llvm@@VStringRef@2@@std@@$00@llvm@@QEAAXAEBU?$pair@PEAVGlobalVariable@llvm@@VStringRef@2@@std@@@Z
	?push_back@?$SmallVectorTemplateBase@V?$function@$$A6AXAEAV?$AnalysisManager@VModule@llvm@@$$V@llvm@@@Z@std@@$0A@@llvm@@QEAAXAEBV?$function@$$A6AXAEAV?$AnalysisManager@VModule@llvm@@$$V@llvm@@@Z@std@@@Z
	?push_back@?$SmallVectorTemplateBase@V?$function@$$A6A_NVStringRef@llvm@@AEAV?$PassManager@VModule@llvm@@V?$AnalysisManager@VModule@llvm@@$$V@2@$$V@2@V?$ArrayRef@UPipelineElement@PassBuilder@llvm@@@2@@Z@std@@$0A@@llvm@@QEAAXAEBV?$function@$$A6A_NVStringRef@llvm@@AEAV?$PassManager@VModule@llvm@@V?$AnalysisManager@VModule@llvm@@$$V@2@$$V@2@V?$ArrayRef@UPipelineElement@PassBuilder@llvm@@@2@@Z@std@@@Z
	?push_back@?$vector@V?$unique_ptr@U?$PassConcept@VModule@llvm@@V?$AnalysisManager@VModule@llvm@@$$V@2@$$V@detail@llvm@@U?$default_delete@U?$PassConcept@VModule@llvm@@V?$AnalysisManager@VModule@llvm@@$$V@2@$$V@detail@llvm@@@std@@@std@@V?$allocator@V?$unique_ptr@U?$PassConcept@VModule@llvm@@V?$AnalysisManager@VModule@llvm@@$$V@2@$$V@detail@llvm@@U?$default_delete@U?$PassConcept@VModule@llvm@@V?$AnalysisManager@VModule@llvm@@$$V@2@$$V@detail@llvm@@@std@@@std@@@2@@std@@QEAAX$$QEAV?$unique_ptr@U?$PassConcept@VModule@llvm@@V?$AnalysisManager@VModule@llvm@@$$V@2@$$V@detail@llvm@@U?$default_delete@U?$PassConcept@VModule@llvm@@V?$AnalysisManager@VModule@llvm@@$$V@2@$$V@detail@llvm@@@std@@@2@@Z
	?registerAnalysis@StringAnalyzer@jvs@@CAXAEAV?$AnalysisManager@VModule@llvm@@$$V@llvm@@@Z
	?registerAnalysisRegistrationCallback@PassBuilder@llvm@@QEAAXAEBV?$function@$$A6AXAEAV?$AnalysisManager@VModule@llvm@@$$V@llvm@@@Z@std@@@Z
	?registerPipelineParsingCallback@PassBuilder@llvm@@QEAAXAEBV?$function@$$A6A_NVStringRef@llvm@@AEAV?$PassManager@VModule@llvm@@V?$AnalysisManager@VModule@llvm@@$$V@2@$$V@2@V?$ArrayRef@UPipelineElement@PassBuilder@llvm@@@2@@Z@std@@@Z
	?registerPipelinePass@StringAnalyzerPrinter@jvs@@CA_NVStringRef@llvm@@AEAV?$PassManager@VModule@llvm@@V?$AnalysisManager@VModule@llvm@@$$V@2@$$V@4@V?$ArrayRef@UPipelineElement@PassBuilder@llvm@@@4@@Z
	?registerPipelinePass@StringReverser@jvs@@CA_NVStringRef@llvm@@AEAV?$PassManager@VModule@llvm@@V?$AnalysisManager@VModule@llvm@@$$V@2@$$V@4@V?$ArrayRef@UPipelineElement@PassBuilder@llvm@@@4@@Z
	?release@?$unique_ptr@U?$AnalysisPassConcept@VModule@llvm@@VInvalidator@?$AnalysisManager@VModule@llvm@@$$V@2@$$V@detail@llvm@@U?$default_delete@U?$AnalysisPassConcept@VModule@llvm@@VInvalidator@?$AnalysisManager@VModule@llvm@@$$V@2@$$V@detail@llvm@@@std@@@std@@QEAAPEAU?$AnalysisPassConcept@VModule@llvm@@VInvalidator@?$AnalysisManager@VModule@llvm@@$$V@2@$$V@detail@llvm@@XZ
	?release@?$unique_ptr@U?$AnalysisResultModel@VModule@llvm@@VPassInstrumentationAnalysis@2@VPassInstrumentation@2@VInvalidator@?$AnalysisManager@VModule@llvm@@$$V@2@$00@detail@llvm@@U?$default_delete@U?$AnalysisResultModel@VModule@llvm@@VPassInstrumentationAnalysis@2@VPassInstrumentation@2@VInvalidator@?$AnalysisManager@VModule@llvm@@$$V@2@$00@detail@llvm@@@std@@@std@@QEAAPEAU?$AnalysisResultModel@VModule@llvm@@VPassInstrumentationAnalysis@2@VPassInstrumentation@2@VInvalidator@?$AnalysisManager@VModule@llvm@@$$V@2@$00@detail@llvm@@XZ
	?release@?$unique_ptr@U?$AnalysisResultModel@VModule@llvm@@VStringAnalyzer@jvs@@V?$MapVector@PEAVGlobalVariable@llvm@@VStringRef@2@V?$DenseMap@PEAVGlobalVariable@llvm@@IU?$DenseMapInfo@PEAVGlobalVariable@llvm@@X@2@U?$DenseMapPair@PEAVGlobalVariable@llvm@@I@detail@2@@2@V?$SmallVector@U?$pair@PEAVGlobalVariable@llvm@@VStringRef@2@@std@@$0A@@2@@2@VInvalidator@?$AnalysisManager@VModule@llvm@@$$V@2@$0A@@detail@llvm@@U?$default_delete@U?$AnalysisResultModel@VModule@llvm@@VStringAnalyzer@jvs@@V?$MapVector@PEAVGlobalVariable@llvm@@VStringRef@2@V?$DenseMap@PEAVGlobalVariable@llvm@@IU?$DenseMapInfo@PEAVGlobalVariable@llvm@@X@2@U?$DenseMapPair@PEAVGlobalVariable@llvm@@I@detail@2@@2@V?$SmallVector@U?$pair@PEAVGlobalVariable@llvm@@VStringRef@2@@std@@$0A@@2@@2@VInvalidator@?$AnalysisManager@VModule@llvm@@$$V@2@$0A@@detail@llvm@@@std@@@std@@QEAAPEAU?$AnalysisResultModel@VModule@llvm@@VStringAnalyzer@jvs@@V?$MapVector@PEAVGlobalVariable@llvm@@VStringRef@2@V?$DenseMap@PEAVGlobalVariable@llvm@@IU?$DenseMapInfo@PEAVGlobalVariable@llvm@@X@2@U?$DenseMapPair@PEAVGlobalVariable@llvm@@I@detail@2@@2@V?$SmallVector@U?$pair@PEAVGlobalVariable@llvm@@VStringRef@2@@std@@$0A@@2@@2@VInvalidator@?$AnalysisManager@VModule@llvm@@$$V@2@$0A@@detail@llvm@@XZ
	?release@?$unique_ptr@U?$PassConcept@VModule@llvm@@V?$AnalysisManager@VModule@llvm@@$$V@2@$$V@detail@llvm@@U?$default_delete@U?$PassConcept@VModule@llvm@@V?$AnalysisManager@VModule@llvm@@$$V@2@$$V@detail@llvm@@@std@@@std@@QEAAPEAU?$PassConcept@VModule@llvm@@V?$AnalysisManager@VModule@llvm@@$$V@2@$$V@detail@llvm@@XZ
	?reserve@?$SmallVectorImpl@U?$pair@PEAVGlobalVariable@llvm@@V?$basic_string@DU?$char_traits@D@std@@V?$allocator@D@2@@std@@@std@@@llvm@@QEAAX_K@Z
	?reserve@?$basic_string@DU?$char_traits@D@std@@V?$allocator@D@2@@std@@QEAAX_K@Z
	?reserveExtraSpace@raw_ostream@llvm@@UEAAX_K@Z
	?reserveExtraSpace@raw_string_ostream@llvm@@UEAAX_K@Z
	?reserveForParamAndGetAddress@?$SmallVectorTemplateBase@U?$pair@PEAVGlobalVariable@llvm@@VStringRef@2@@std@@$00@llvm@@IEAAPEBU?$pair@PEAVGlobalVariable@llvm@@VStringRef@2@@std@@AEBU34@_K@Z
	?reserveForParamAndGetAddress@?$SmallVectorTemplateBase@V?$function@$$A6AXAEAV?$AnalysisManager@VModule@llvm@@$$V@llvm@@@Z@std@@$0A@@llvm@@IEAAPEBV?$function@$$A6AXAEAV?$AnalysisManager@VModule@llvm@@$$V@llvm@@@Z@std@@AEBV34@_K@Z
	?reserveForParamAndGetAddress@?$SmallVectorTemplateBase@V?$function@$$A6A_NVStringRef@llvm@@AEAV?$PassManager@VModule@llvm@@V?$AnalysisManager@VModule@llvm@@$$V@2@$$V@2@V?$ArrayRef@UPipelineElement@PassBuilder@llvm@@@2@@Z@std@@$0A@@llvm@@IEAAPEBV?$function@$$A6A_NVStringRef@llvm@@AEAV?$PassManager@VModule@llvm@@V?$AnalysisManager@VModule@llvm@@$$V@2@$$V@2@V?$ArrayRef@UPipelineElement@PassBuilder@llvm@@@2@@Z@std@@AEBV34@_K@Z
	?reset@?$unique_ptr@U?$AnalysisPassConcept@VModule@llvm@@VInvalidator@?$AnalysisManager@VModule@llvm@@$$V@2@$$V@detail@llvm@@U?$default_delete@U?$AnalysisPassConcept@VModule@llvm@@VInvalidator@?$AnalysisManager@VModule@llvm@@$$V@2@$$V@detail@llvm@@@std@@@std@@QEAAXPEAU?$AnalysisPassConcept@VModule@llvm@@VInvalidator@?$AnalysisManager@VModule@llvm@@$$V@2@$$V@detail@llvm@@@Z
	?resetToSmall@?$SmallVectorTemplateCommon@U?$pair@PEAVGlobalVariable@llvm@@VStringRef@2@@std@@X@llvm@@IEAAXXZ
	?run@?$AnalysisPassModel@VModule@llvm@@VPassInstrumentationAnalysis@2@VInvalidator@?$AnalysisManager@VModule@llvm@@$$V@2@$$V@detail@llvm@@UEAA?AV?$unique_ptr@U?$AnalysisResultConcept@VModule@llvm@@VInvalidator@?$AnalysisManager@VModule@llvm@@$$V@2@@detail@llvm@@U?$default_delete@U?$AnalysisResultConcept@VModule@llvm@@VInvalidator@?$AnalysisManager@VModule@llvm@@$$V@2@@detail@llvm@@@std@@@std@@AEAVModule@3@AEAV?$AnalysisManager@VModule@llvm@@$$V@3@@Z
	?run@?$AnalysisPassModel@VModule@llvm@@VStringAnalyzer@jvs@@VInvalidator@?$AnalysisManager@VModule@llvm@@$$V@2@$$V@detail@llvm@@UEAA?AV?$unique_ptr@U?$AnalysisResultConcept@VModule@llvm@@VInvalidator@?$AnalysisManager@VModule@llvm@@$$V@2@@detail@llvm@@U?$default_delete@U?$AnalysisResultConcept@VModule@llvm@@VInvalidator@?$AnalysisManager@VModule@llvm@@$$V@2@@detail@llvm@@@std@@@std@@AEAVModule@3@AEAV?$AnalysisManager@VModule@llvm@@$$V@3@@Z
	?run@?$PassModel@VModule@llvm@@VStringAnalyzerPrinter@jvs@@V?$AnalysisManager@VModule@llvm@@$$V@2@$$V@detail@llvm@@UEAA?AVPreservedAnalyses@3@AEAVModule@3@AEAV?$AnalysisManager@VModule@llvm@@$$V@3@@Z
	?run@?$PassModel@VModule@llvm@@VStringReverser@jvs@@V?$AnalysisManager@VModule@llvm@@$$V@2@$$V@detail@llvm@@UEAA?AVPreservedAnalyses@3@AEAVModule@3@AEAV?$AnalysisManager@VModule@llvm@@$$V@3@@Z
	?run@StringAnalyzer@jvs@@QEAA?AV?$MapVector@PEAVGlobalVariable@llvm@@VStringRef@2@V?$DenseMap@PEAVGlobalVariable@llvm@@IU?$DenseMapInfo@PEAVGlobalVariable@llvm@@X@2@U?$DenseMapPair@PEAVGlobalVariable@llvm@@I@detail@2@@2@V?$SmallVector@U?$pair@PEAVGlobalVariable@llvm@@VStringRef@2@@std@@$0A@@2@@llvm@@AEAVModule@4@@Z
	?run@StringAnalyzer@jvs@@QEAA?AV?$MapVector@PEAVGlobalVariable@llvm@@VStringRef@2@V?$DenseMap@PEAVGlobalVariable@llvm@@IU?$DenseMapInfo@PEAVGlobalVariable@llvm@@X@2@U?$DenseMapPair@PEAVGlobalVariable@llvm@@I@detail@2@@2@V?$SmallVector@U?$pair@PEAVGlobalVariable@llvm@@VStringRef@2@@std@@$0A@@2@@llvm@@AEAVModule@4@AEAV?$AnalysisManager@VModule@llvm@@$$V@4@@Z
	?run@StringAnalyzerPrinter@jvs@@QEAA?AVPreservedAnalyses@llvm@@AEAVModule@4@AEAV?$AnalysisManager@VModule@llvm@@$$V@4@@Z
	?run@StringReverser@jvs@@QEAA?AVPreservedAnalyses@llvm@@AEAVModule@4@AEAV?$AnalysisManager@VModule@llvm@@$$V@4@@Z
	?run@StringReverser@jvs@@QEAA_N$$QEAV?$SmallVectorImpl@U?$pair@PEAVGlobalVariable@llvm@@V?$basic_string@DU?$char_traits@D@std@@V?$allocator@D@2@@std@@@std@@@llvm@@@Z
	?select_on_container_copy_construction@?$_Default_allocator_traits@V?$allocator@D@std@@@std@@SA?AV?$allocator@D@2@AEBV32@@Z
	?setNumEntries@?$DenseMap@PEAUAnalysisKey@llvm@@V?$unique_ptr@U?$AnalysisPassConcept@VModule@llvm@@VInvalidator@?$AnalysisManager@VModule@llvm@@$$V@2@$$V@detail@llvm@@U?$default_delete@U?$AnalysisPassConcept@VModule@llvm@@VInvalidator@?$AnalysisManager@VModule@llvm@@$$V@2@$$V@detail@llvm@@@std@@@std@@U?$DenseMapInfo@PEAUAnalysisKey@llvm@@X@2@U?$DenseMapPair@PEAUAnalysisKey@llvm@@V?$unique_ptr@U?$AnalysisPassConcept@VModule@llvm@@VInvalidator@?$AnalysisManager@VModule@llvm@@$$V@2@$$V@detail@llvm@@U?$default_delete@U?$AnalysisPassConcept@VModule@llvm@@VInvalidator@?$AnalysisManager@VModule@llvm@@$$V@2@$$V@detail@llvm@@@std@@@std@@@detail@2@@llvm@@AEAAXI@Z
	?setNumEntries@?$DenseMap@PEAVGlobalVariable@llvm@@IU?$DenseMapInfo@PEAVGlobalVariable@llvm@@X@2@U?$DenseMapPair@PEAVGlobalVariable@llvm@@I@detail@2@@llvm@@AEAAXI@Z
	?setNumEntries@?$DenseMapBase@V?$DenseMap@PEAUAnalysisKey@llvm@@V?$unique_ptr@U?$AnalysisPassConcept@VModule@llvm@@VInvalidator@?$AnalysisManager@VModule@llvm@@$$V@2@$$V@detail@llvm@@U?$default_delete@U?$AnalysisPassConcept@VModule@llvm@@VInvalidator@?$AnalysisManager@VModule@llvm@@$$V@2@$$V@detail@llvm@@@std@@@std@@U?$DenseMapInfo@PEAUAnalysisKey@llvm@@X@2@U?$DenseMapPair@PEAUAnalysisKey@llvm@@V?$unique_ptr@U?$AnalysisPassConcept@VModule@llvm@@VInvalidator@?$AnalysisManager@VModule@llvm@@$$V@2@$$V@detail@llvm@@U?$default_delete@U?$AnalysisPassConcept@VModule@llvm@@VInvalidator@?$AnalysisManager@VModule@llvm@@$$V@2@$$V@detail@llvm@@@std@@@std@@@detail@2@@llvm@@PEAUAnalysisKey@2@V?$unique_ptr@U?$AnalysisPassConcept@VModule@llvm@@VInvalidator@?$AnalysisManager@VModule@llvm@@$$V@2@$$V@detail@llvm@@U?$default_delete@U?$AnalysisPassConcept@VModule@llvm@@VInvalidator@?$AnalysisManager@VModule@llvm@@$$V@2@$$V@detail@llvm@@@std@@@std@@U?$DenseMapInfo@PEAUAnalysisKey@llvm@@X@2@U?$DenseMapPair@PEAUAnalysisKey@llvm@@V?$unique_ptr@U?$AnalysisPassConcept@VModule@llvm@@VInvalidator@?$AnalysisManager@VModule@llvm@@$$V@2@$$V@detail@llvm@@U?$default_delete@U?$AnalysisPassConcept@VModule@llvm@@VInvalidator@?$AnalysisManager@VModule@llvm@@$$V@2@$$V@detail@llvm@@@std@@@std@@@detail@2@@llvm@@AEAAXI@Z
	?setNumEntries@?$DenseMapBase@V?$DenseMap@PEAVGlobalVariable@llvm@@IU?$DenseMapInfo@PEAVGlobalVariable@llvm@@X@2@U?$DenseMapPair@PEAVGlobalVariable@llvm@@I@detail@2@@llvm@@PEAVGlobalVariable@2@IU?$DenseMapInfo@PEAVGlobalVariable@llvm@@X@2@U?$DenseMapPair@PEAVGlobalVariable@llvm@@I@detail@2@@llvm@@AEAAXI@Z
	?setNumTombstones@?$DenseMap@PEAUAnalysisKey@llvm@@V?$unique_ptr@U?$AnalysisPassConcept@VModule@llvm@@VInvalidator@?$AnalysisManager@VModule@llvm@@$$V@2@$$V@detail@llvm@@U?$default_delete@U?$AnalysisPassConcept@VModule@llvm@@VInvalidator@?$AnalysisManager@VModule@llvm@@$$V@2@$$V@detail@llvm@@@std@@@std@@U?$DenseMapInfo@PEAUAnalysisKey@llvm@@X@2@U?$DenseMapPair@PEAUAnalysisKey@llvm@@V?$unique_ptr@U?$AnalysisPassConcept@VModule@llvm@@VInvalidator@?$AnalysisManager@VModule@llvm@@$$V@2@$$V@detail@llvm@@U?$default_delete@U?$AnalysisPassConcept@VModule@llvm@@VInvalidator@?$AnalysisManager@VModule@llvm@@$$V@2@$$V@detail@llvm@@@std@@@std@@@detail@2@@llvm@@AEAAXI@Z
	?setNumTombstones@?$DenseMap@PEAVGlobalVariable@llvm@@IU?$DenseMapInfo@PEAVGlobalVariable@llvm@@X@2@U?$DenseMapPair@PEAVGlobalVariable@llvm@@I@detail@2@@llvm@@AEAAXI@Z
	?setNumTombstones@?$DenseMapBase@V?$DenseMap@PEAUAnalysisKey@llvm@@V?$unique_ptr@U?$AnalysisPassConcept@VModule@llvm@@VInvalidator@?$AnalysisManager@VModule@llvm@@$$V@2@$$V@detail@llvm@@U?$default_delete@U?$AnalysisPassConcept@VModule@llvm@@VInvalidator@?$AnalysisManager@VModule@llvm@@$$V@2@$$V@detail@llvm@@@std@@@std@@U?$DenseMapInfo@PEAUAnalysisKey@llvm@@X@2@U?$DenseMapPair@PEAUAnalysisKey@llvm@@V?$unique_ptr@U?$AnalysisPassConcept@VModule@llvm@@VInvalidator@?$AnalysisManager@VModule@llvm@@$$V@2@$$V@detail@llvm@@U?$default_delete@U?$AnalysisPassConcept@VModule@llvm@@VInvalidator@?$AnalysisManager@VModule@llvm@@$$V@2@$$V@detail@llvm@@@std@@@std@@@detail@2@@llvm@@PEAUAnalysisKey@2@V?$unique_ptr@U?$AnalysisPassConcept@VModule@llvm@@VInvalidator@?$AnalysisManager@VModule@llvm@@$$V@2@$$V@detail@llvm@@U?$default_delete@U?$AnalysisPassConcept@VModule@llvm@@VInvalidator@?$AnalysisManager@VModule@llvm@@$$V@2@$$V@detail@llvm@@@std@@@std@@U?$DenseMapInfo@PEAUAnalysisKey@llvm@@X@2@U?$DenseMapPair@PEAUAnalysisKey@llvm@@V?$unique_ptr@U?$AnalysisPassConcept@VModule@llvm@@VInvalidator@?$AnalysisManager@VModule@llvm@@$$V@2@$$V@detail@llvm@@U?$default_delete@U?$AnalysisPassConcept@VModule@llvm@@VInvalidator@?$AnalysisManager@VModule@llvm@@$$V@2@$$V@detail@llvm@@@std@@@std@@@detail@2@@llvm@@AEAAXI@Z
	?setNumTombstones@?$DenseMapBase@V?$DenseMap@PEAVGlobalVariable@llvm@@IU?$DenseMapInfo@PEAVGlobalVariable@llvm@@X@2@U?$DenseMapPair@PEAVGlobalVariable@llvm@@I@detail@2@@llvm@@PEAVGlobalVariable@2@IU?$DenseMapInfo@PEAVGlobalVariable@llvm@@X@2@U?$DenseMapPair@PEAVGlobalVariable@llvm@@I@detail@2@@llvm@@AEAAXI@Z
	?size@?$basic_string@DU?$char_traits@D@std@@V?$allocator@D@2@@std@@QEBA_KXZ
	?size@?$basic_string_view@DU?$char_traits@D@std@@@std@@QEBA_KXZ
	?size@SmallPtrSetImplBase@llvm@@QEBAIXZ
	?size@StringRef@llvm@@QEBA_KXZ
	?starts_with@StringRef@llvm@@QEBA_NV12@@Z
	?store@?$_Atomic_storage@_K$07@std@@QEAAX_K@Z
	?store@?$_Atomic_storage@_K$07@std@@QEAAX_KW4memory_order@2@@Z
	?str@StringRef@llvm@@QEBA?AV?$basic_string@DU?$char_traits@D@std@@V?$allocator@D@2@@std@@XZ
	?str@raw_string_ostream@llvm@@QEAAAEAV?$basic_string@DU?$char_traits@D@std@@V?$allocator@D@2@@std@@XZ
	?substr@?$basic_string_view@DU?$char_traits@D@std@@@std@@QEBA?AV12@_K_K@Z
	?substr@StringRef@llvm@@QEBA?AV12@_K0@Z
	?swap@?$DenseMap@PEAVGlobalVariable@llvm@@IU?$DenseMapInfo@PEAVGlobalVariable@llvm@@X@2@U?$DenseMapPair@PEAVGlobalVariable@llvm@@I@detail@2@@llvm@@QEAAXAEAV12@@Z
	?takeAllocationForGrow@?$SmallVectorTemplateBase@U?$pair@PEAVGlobalVariable@llvm@@V?$basic_string@DU?$char_traits@D@std@@V?$allocator@D@2@@std@@@std@@$0A@@llvm@@IEAAXPEAU?$pair@PEAVGlobalVariable@llvm@@V?$basic_string@DU?$char_traits@D@std@@V?$allocator@D@2@@std@@@std@@_K@Z
	?takeAllocationForGrow@?$SmallVectorTemplateBase@V?$function@$$A6AXAEAV?$AnalysisManager@VModule@llvm@@$$V@llvm@@@Z@std@@$0A@@llvm@@IEAAXPEAV?$function@$$A6AXAEAV?$AnalysisManager@VModule@llvm@@$$V@llvm@@@Z@std@@_K@Z
	?takeAllocationForGrow@?$SmallVectorTemplateBase@V?$function@$$A6A_NVStringRef@llvm@@AEAV?$PassManager@VModule@llvm@@V?$AnalysisManager@VModule@llvm@@$$V@2@$$V@2@V?$ArrayRef@UPipelineElement@PassBuilder@llvm@@@2@@Z@std@@$0A@@llvm@@IEAAXPEAV?$function@$$A6A_NVStringRef@llvm@@AEAV?$PassManager@VModule@llvm@@V?$AnalysisManager@VModule@llvm@@$$V@2@$$V@2@V?$ArrayRef@UPipelineElement@PassBuilder@llvm@@@2@@Z@std@@_K@Z
	?tell@raw_ostream@llvm@@QEBA_KXZ
	?user_end@Value@llvm@@QEAA?AV?$user_iterator_impl@VUser@llvm@@@12@XZ
	?users@Value@llvm@@QEAA?AV?$iterator_range@V?$user_iterator_impl@VUser@llvm@@@Value@llvm@@@2@XZ
	?what@exception@std@@UEBAPEBDXZ
	?wrapped@?$iterator_adaptor_base@V?$filter_iterator_base@V?$ilist_iterator@U?$node_options@VGlobalVariable@llvm@@$00$0A@X$0A@X@ilist_detail@llvm@@$0A@$0A@@llvm@@P6A_NAEBVGlobalVariable@2@@_EUbidirectional_iterator_tag@std@@@llvm@@V?$ilist_iterator@U?$node_options@VGlobalVariable@llvm@@$00$0A@X$0A@X@ilist_detail@llvm@@$0A@$0A@@2@Ubidirectional_iterator_tag@std@@VGlobalVariable@2@_JPEAV62@AEAV62@@llvm@@IEBAAEBV?$ilist_iterator@U?$node_options@VGlobalVariable@llvm@@$00$0A@X$0A@X@ilist_detail@llvm@@$0A@$0A@@2@XZ
	_Check_memory_order
	llvmGetPassPluginInfo
